(dp1
S'OriginalConfig'
p2
ccopy_reg
_reconstructor
p3
(cWMCore.Configuration
Configuration
p4
c__builtin__
object
p5
NtRp6
(dp7
S'Site'
p8
g3
(cWMCore.Configuration
ConfigSection
p9
g5
NtRp10
(dp11
S'_internal_skipChecks'
p12
I00
sS'_internal_documentation'
p13
S''
sS'_internal_settings'
p14
c__builtin__
set
p15
((lp16
S'storageSite'
p17
atRp18
sS'_internal_name'
p19
g8
sS'_internal_docstrings'
p20
(dp21
sS'_internal_children'
p22
g15
((ltRp23
sg17
S'T2_CH_CERN'
p24
sS'_internal_parent_ref'
p25
NsbsS'_internal_sections'
p26
(lp27
S'General'
p28
aS'JobType'
p29
aS'Data'
p30
ag8
aS'User'
p31
aS'Debug'
p32
asg28
g3
(g9
g5
NtRp33
(dp34
S'transferLogs'
p35
I00
sg12
I00
sg13
S''
sg14
g15
((lp36
g35
aS'transferOutputs'
p37
aS'workArea'
p38
aS'requestName'
p39
atRp40
sg19
g28
sg20
(dp41
sg37
I01
sg22
g15
((ltRp42
sg39
S'NoiseScan_20170919_run303272_v1_160'
p43
sg25
Nsg38
S'crab_projects'
p44
sbsS'_internal_webapps'
p45
(lp46
sg31
g3
(g9
g5
NtRp47
(dp48
g12
I00
sg13
S''
sg14
g15
((ltRp49
sg19
g31
sg20
(dp50
sg22
g15
((ltRp51
sg25
NsbsS'_internal_components'
p52
(lp53
sg32
g3
(g9
g5
NtRp54
(dp55
g12
I00
sg13
S''
sg14
g15
((ltRp56
sg19
g32
sg20
(dp57
sg22
g15
((ltRp58
sg25
Nsbsg30
g3
(g9
g5
NtRp59
(dp60
S'inputDataset'
p61
S'/VRRandom0/Run2017D-v1/RAW'
p62
sg12
I00
sS'splitting'
p63
S'LumiBased'
p64
sS'unitsPerJob'
p65
I500
sg13
S''
sg14
g15
((lp66
g61
aS'publication'
p67
ag65
aS'ignoreLocality'
p68
aS'inputDBS'
p69
ag63
aS'outLFNDirBase'
p70
aS'runRange'
p71
atRp72
sg68
I01
sg19
g30
sg69
S'global'
p73
sg20
(dp74
sg22
g15
((ltRp75
sg70
S'/store/group/dpg_tracker_strip/comm_tracker/Strip/RadMonitoring/NoiseBiasScan/2017'
p76
sg25
Nsg71
S'303272,303314'
p77
sg67
I00
sbsg29
g3
(g9
g5
NtRp78
(dp79
S'outputFiles'
p80
(lp81
S'SiStripCommissioningSource.root'
p82
asg12
I00
sg13
S''
sg14
g15
((lp83
S'psetName'
p84
aS'pluginName'
p85
ag80
aS'scriptExe'
p86
aS'maxMemoryMB'
p87
atRp88
sg19
g29
sg86
S'scriptExe.sh'
p89
sg20
(dp90
sg85
S'Analysis'
p91
sg22
g15
((ltRp92
sg84
S'computeNoiseFromRaw_cfg_160.py'
p93
sg25
Nsg87
I3000
sbsbsS'voGroup'
p94
S''
sS'Server'
p95
S'cmsweb.cern.ch'
p96
sS'instance'
p97
S'prod'
p98
sS'RequestName'
p99
V171208_143742:ntonon_crab_NoiseScan_20170919_run303272_v1_160
p100
sS'voRole'
p101
S'NULL'
p102
sS'Port'
p103
S''
s.