ccopy_reg
_reconstructor
p0
(cFWCore.ParameterSet.Config
Process
p1
c__builtin__
object
p2
Ntp3
Rp4
(dp5
S'HcalGeometryFromDBEP'
p6
g0
(cFWCore.ParameterSet.Modules
ESProducer
p7
g2
Ntp8
Rp9
(dp10
S'_Parameterizable__parameterNames'
p11
(lp12
S'applyAlignment'
p13
asS'_isFrozen'
p14
I00
sS'_isModified'
p15
I01
sS'_lineNumber'
p16
I52
sS'_filename'
p17
S'/cvmfs/cms.cern.ch/slc6_amd64_gcc530/cms/cmssw/CMSSW_9_2_10/python/FWCore/ParameterSet/Modules.py'
p18
sS'_Labelable__label'
p19
g6
sg13
g0
(cFWCore.ParameterSet.Types
bool
p20
g2
Ntp21
Rp22
(dp23
g14
I00
sS'_ParameterTypeBase__isTracked'
p24
I01
sS'_value'
p25
I01
sg15
I01
sbsS'_TypedParameterizable__type'
p26
g6
sbsS'CaloGeometryBuilder'
p27
g0
(g7
g2
Ntp28
Rp29
(dp30
g11
(lp31
S'SelectedCalos'
p32
asg14
I00
sg15
I00
sg16
I52
sg17
g18
sg32
g0
(cFWCore.ParameterSet.Types
vstring
p33
c__builtin__
list
p34
(lp35
S'HCAL'
p36
aS'ZDC'
p37
aS'CASTOR'
p38
aS'EcalBarrel'
p39
aS'EcalEndcap'
p40
aS'EcalPreshower'
p41
aS'TOWER'
p42
atp43
Rp44
(dp45
g14
I00
sg24
I01
sg15
I00
sS'_nPerLine'
p46
I1
sbsg19
g27
sg26
g27
sbsS'_Process__sequences'
p47
(dp48
sS'siStripBackPlaneCorrectionDepESProducer'
p49
g0
(g7
g2
Ntp50
Rp51
(dp52
g11
(lp53
S'LatencyRecord'
p54
aS'BackPlaneCorrectionDeconvMode'
p55
aS'BackPlaneCorrectionPeakMode'
p56
asg14
I00
sg15
I00
sg16
I52
sg17
g18
sg54
g0
(cFWCore.ParameterSet.Types
PSet
p57
g2
Ntp58
Rp59
(dp60
g14
I00
sg24
I01
sg15
I00
sS'label'
p61
g0
(cFWCore.ParameterSet.Types
string
p62
g2
Ntp63
Rp64
(dp65
g14
I00
sg24
I00
sg25
S''
p66
sg15
I00
sbsS'record'
p67
g0
(g62
g2
Ntp68
Rp69
(dp70
g14
I00
sg24
I01
sg25
S'SiStripLatencyRcd'
p71
sg15
I00
sbsg11
(lp72
g67
ag61
asbsg56
g0
(g57
g2
Ntp73
Rp74
(dp75
g14
I00
sg24
I01
sg15
I00
sg61
g0
(g62
g2
Ntp76
Rp77
(dp78
g14
I00
sg24
I00
sg25
S'peak'
p79
sg15
I00
sbsg67
g0
(g62
g2
Ntp80
Rp81
(dp82
g14
I00
sg24
I01
sg25
S'SiStripBackPlaneCorrectionRcd'
p83
sg15
I00
sbsg11
(lp84
g67
ag61
asbsg19
g49
sg55
g0
(g57
g2
Ntp85
Rp86
(dp87
g14
I00
sg24
I01
sg15
I00
sg61
g0
(g62
g2
Ntp88
Rp89
(dp90
g14
I00
sg24
I00
sg25
S'deconvolution'
p91
sg15
I00
sbsg67
g0
(g62
g2
Ntp92
Rp93
(dp94
g14
I00
sg24
I01
sg25
g83
sg15
I00
sbsg11
(lp95
g67
ag61
asbsg26
S'SiStripBackPlaneCorrectionDepESProducer'
p96
sbsS'_Process__services'
p97
(dp98
S'SiStripDetInfoFileReader'
p99
g0
(cFWCore.ParameterSet.Modules
Service
p100
g2
Ntp101
Rp102
(dp103
g11
(lp104
sg14
I00
sS'_inProcess'
p105
I01
sg15
I00
sg16
I10
sg17
g18
sg26
g99
sbsS'DQMStore'
p106
g0
(g100
g2
Ntp107
Rp108
(dp109
g11
(lp110
sg14
I00
sg105
I01
sg15
I00
sg16
I10
sg17
g18
sg26
g106
sbssS'siStripQualityESProducer'
p111
g0
(g7
g2
Ntp112
Rp113
(dp114
g11
(lp115
S'appendToDataLabel'
p116
aS'PrintDebugOutput'
p117
aS'ThresholdForReducedGranularity'
p118
aS'UseEmptyRunInfo'
p119
aS'ReduceGranularity'
p120
aS'ListOfRecordToMerge'
p121
asg14
I00
sg116
g0
(g62
g2
Ntp122
Rp123
(dp124
g14
I00
sg24
I01
sg25
g66
sg15
I00
sbsg15
I01
sg16
I52
sg17
g18
sg118
g0
(cFWCore.ParameterSet.Types
double
p125
g2
Ntp126
Rp127
(dp128
g14
I00
sg24
I01
sg25
F0.3
sg15
I00
sbsg19
g111
sg119
g0
(g20
g2
Ntp129
Rp130
(dp131
g14
I00
sg24
I01
sg25
I00
sg15
I00
sbsg120
g0
(g20
g2
Ntp132
Rp133
(dp134
g14
I00
sg24
I01
sg25
I00
sg15
I00
sbsg121
g0
(cFWCore.ParameterSet.Types
VPSet
p135
g34
(lp136
g0
(g57
g2
Ntp137
Rp138
(dp139
g14
I00
sg24
I01
sg15
I00
sg67
g0
(g62
g2
Ntp140
Rp141
(dp142
g14
I00
sg24
I01
sg25
S'SiStripDetVOffRcd'
p143
sg15
I00
sbsS'tag'
p144
g0
(g62
g2
Ntp145
Rp146
(dp147
g14
I00
sg24
I01
sg25
g66
sg15
I00
sbsg11
(lp148
g67
ag144
asbag0
(g57
g2
Ntp149
Rp150
(dp151
g14
I00
sg24
I01
sg15
I00
sg67
g0
(g62
g2
Ntp152
Rp153
(dp154
g14
I00
sg24
I01
sg25
S'SiStripDetCablingRcd'
p155
sg15
I00
sbsg144
g0
(g62
g2
Ntp156
Rp157
(dp158
g14
I00
sg24
I01
sg25
g66
sg15
I00
sbsg11
(lp159
g67
ag144
asbag0
(g57
g2
Ntp160
Rp161
(dp162
g14
I00
sg24
I01
sg15
I00
sg67
g0
(g62
g2
Ntp163
Rp164
(dp165
g14
I00
sg24
I01
sg25
S'RunInfoRcd'
p166
sg15
I00
sbsg144
g0
(g62
g2
Ntp167
Rp168
(dp169
g14
I00
sg24
I01
sg25
g66
sg15
I00
sbsg11
(lp170
g67
ag144
asbag0
(g57
g2
Ntp171
Rp172
(dp173
g14
I00
sg24
I01
sg15
I00
sg67
g0
(g62
g2
Ntp174
Rp175
(dp176
g14
I00
sg24
I01
sg25
S'SiStripBadChannelRcd'
p177
sg15
I00
sbsg144
g0
(g62
g2
Ntp178
Rp179
(dp180
g14
I00
sg24
I01
sg25
g66
sg15
I00
sbsg11
(lp181
g67
ag144
asbag0
(g57
g2
Ntp182
Rp183
(dp184
g14
I00
sg24
I01
sg15
I00
sg67
g0
(g62
g2
Ntp185
Rp186
(dp187
g14
I00
sg24
I01
sg25
S'SiStripBadFiberRcd'
p188
sg15
I00
sbsg144
g0
(g62
g2
Ntp189
Rp190
(dp191
g14
I00
sg24
I01
sg25
g66
sg15
I00
sbsg11
(lp192
g67
ag144
asbag0
(g57
g2
Ntp193
Rp194
(dp195
g14
I00
sg24
I01
sg15
I00
sg67
g0
(g62
g2
Ntp196
Rp197
(dp198
g14
I00
sg24
I01
sg25
S'SiStripBadModuleRcd'
p199
sg15
I00
sbsg144
g0
(g62
g2
Ntp200
Rp201
(dp202
g14
I00
sg24
I01
sg25
g66
sg15
I00
sbsg11
(lp203
g67
ag144
asbag0
(g57
g2
Ntp204
Rp205
(dp206
g14
I00
sg24
I01
sg15
I00
sg67
g0
(g62
g2
Ntp207
Rp208
(dp209
g14
I00
sg24
I01
sg25
S'SiStripBadStripRcd'
p210
sg15
I00
sbsg144
g0
(g62
g2
Ntp211
Rp212
(dp213
g14
I00
sg24
I01
sg25
g66
sg15
I00
sbsg11
(lp214
g67
ag144
asbatp215
Rp216
(dp217
g14
I00
sg24
I01
sg15
I00
sg46
I1
sbsg26
S'SiStripQualityESProducer'
p218
sg117
g0
(g20
g2
Ntp219
Rp220
(dp221
g14
I00
sg24
I01
sg25
I00
sg15
I00
sbsbsg106
g108
sS'DTGeometryESModule'
p222
g0
(g7
g2
Ntp223
Rp224
(dp225
g11
(lp226
g116
aS'fromDDD'
p227
ag13
aS'alignmentsLabel'
p228
asg14
I00
sg116
g0
(g62
g2
Ntp229
Rp230
(dp231
g14
I00
sg24
I01
sg25
g66
sg15
I00
sbsg15
I00
sg228
g0
(g62
g2
Ntp232
Rp233
(dp234
g14
I00
sg24
I01
sg25
g66
sg15
I00
sbsg17
g18
sg16
I52
sg19
g222
sg227
g0
(g20
g2
Ntp235
Rp236
(dp237
g14
I00
sg24
I01
sg25
I00
sg15
I00
sbsg13
g0
(g20
g2
Ntp238
Rp239
(dp240
g14
I00
sg24
I01
sg25
I01
sg15
I00
sbsg26
g222
sbsS'_Process__source'
p241
g0
(cFWCore.ParameterSet.Modules
Source
p242
g2
Ntp243
Rp244
(dp245
g11
(lp246
S'eventsToProcess'
p247
aS'fileNames'
p248
asg14
I00
sg247
g0
(cFWCore.ParameterSet.Types
VEventRange
p249
g34
(lp250
S'303314:171919-303314:190828'
p251
atp252
Rp253
(dp254
g14
I00
sg24
I00
sg15
I00
sbsg15
I00
sg16
I192
sg17
g18
sg248
g0
(g33
g34
(lp255
S'/store/data/Run2017D/VRRandom0/RAW/v1/000/303/272/00000/02DA6AA0-A49E-E711-A533-02163E01A3C8.root'
p256
atp257
Rp258
(dp259
g14
I00
sg24
I00
sg15
I00
sg46
I1
sbsg26
S'PoolSource'
p260
sbsS'StripCPEfromTrackAngleESProducer'
p261
g0
(g7
g2
Ntp262
Rp263
(dp264
g11
(lp265
S'ComponentType'
p266
aS'ComponentName'
p267
aS'parameters'
p268
asg14
I00
sg15
I01
sg268
g0
(g57
g2
Ntp269
Rp270
(dp271
g14
I00
sg24
I01
sS'maxChgOneMIP'
p272
g0
(g125
g2
Ntp273
Rp274
(dp275
g14
I00
sg24
I01
sg25
F6000.0
sg15
I00
sbsS'mLC_P2'
p276
g0
(g125
g2
Ntp277
Rp278
(dp279
g14
I00
sg24
I01
sg25
F0.3
sg15
I00
sbsS'mLC_P1'
p280
g0
(g125
g2
Ntp281
Rp282
(dp283
g14
I00
sg24
I01
sg25
F0.618
sg15
I00
sbsS'mLC_P0'
p284
g0
(g125
g2
Ntp285
Rp286
(dp287
g14
I00
sg24
I01
sg25
F-0.326
sg15
I00
sbsS'useLegacyError'
p288
g0
(g20
g2
Ntp289
Rp290
(dp291
g14
I00
sg24
I01
sg25
I00
sg15
I00
sbsS'mTIB_P1'
p292
g0
(g125
g2
Ntp293
Rp294
(dp295
g14
I00
sg24
I01
sg25
F0.202
sg15
I00
sbsS'mTEC_P1'
p296
g0
(g125
g2
Ntp297
Rp298
(dp299
g14
I00
sg24
I01
sg25
F0.471
sg15
I00
sbsS'mTEC_P0'
p300
g0
(g125
g2
Ntp301
Rp302
(dp303
g14
I00
sg24
I01
sg25
F-1.885
sg15
I00
sbsS'mTOB_P0'
p304
g0
(g125
g2
Ntp305
Rp306
(dp307
g14
I00
sg24
I01
sg25
F-1.026
sg15
I00
sbsS'mTOB_P1'
p308
g0
(g125
g2
Ntp309
Rp310
(dp311
g14
I00
sg24
I01
sg25
F0.253
sg15
I00
sbsS'mTIB_P0'
p312
g0
(g125
g2
Ntp313
Rp314
(dp315
g14
I00
sg24
I01
sg25
F-0.742
sg15
I00
sbsg11
(lp316
g272
ag276
ag280
ag284
ag288
ag296
ag300
ag304
ag308
ag312
ag292
aS'mTID_P0'
p317
aS'mTID_P1'
p318
asg317
g0
(g125
g2
Ntp319
Rp320
(dp321
g14
I00
sg24
I01
sg25
F-1.427
sg15
I00
sbsg318
g0
(g125
g2
Ntp322
Rp323
(dp324
g14
I00
sg24
I01
sg25
F0.433
sg15
I00
sbsg15
I00
sbsg16
I4
sg267
g0
(g62
g2
Ntp325
Rp326
(dp327
g14
I00
sg24
I01
sg25
S'StripCPEfromTrackAngle'
p328
sg15
I00
sbsg266
g0
(g62
g2
Ntp329
Rp330
(dp331
g14
I00
sg24
I01
sg25
g328
sg15
I00
sbsg17
S'/cvmfs/cms.cern.ch/slc6_amd64_gcc530/cms/cmssw/CMSSW_9_2_10/python/RecoLocalTracker/SiStripRecHitConverter/StripCPEfromTrackAngle_cfi.py'
p332
sg19
g261
sg26
S'StripCPEESProducer'
p333
sbsS'_Process__aliases'
p334
(dp335
sS'eegeom'
p336
g0
(cFWCore.ParameterSet.Modules
ESSource
p337
g2
Ntp338
Rp339
(dp340
g11
(lp341
S'iovIsRunNotTime'
p342
aS'recordName'
p343
aS'firstValid'
p344
asg14
I00
sg15
I00
sg16
I6
sg343
g0
(g62
g2
Ntp345
Rp346
(dp347
g14
I00
sg24
I01
sg25
S'EcalMappingRcd'
p348
sg15
I00
sbsg17
S'/cvmfs/cms.cern.ch/slc6_amd64_gcc530/cms/cmssw/CMSSW_9_2_10/python/Geometry/EcalMapping/EcalMappingRecord_cfi.py'
p349
sg344
g0
(cFWCore.ParameterSet.Types
vuint32
p350
g34
(lp351
I1
atp352
Rp353
(dp354
g14
I00
sg24
I01
sg15
I00
sbsg19
g336
sg342
g0
(g20
g2
Ntp355
Rp356
(dp357
g14
I00
sg24
I01
sg25
I01
sg15
I00
sbsg26
S'EmptyESSource'
p358
sbsS'CastorGeometryFromDBEP'
p359
g0
(g7
g2
Ntp360
Rp361
(dp362
g11
(lp363
g13
asg14
I00
sg15
I00
sg16
I52
sg17
g18
sg19
g359
sg13
g0
(g20
g2
Ntp364
Rp365
(dp366
g14
I00
sg24
I01
sg25
I00
sg15
I00
sbsg26
g359
sbsS'CaloTopologyBuilder'
p367
g0
(g7
g2
Ntp368
Rp369
(dp370
g11
(lp371
sg14
I00
sg15
I00
sg16
I52
sg17
g18
sg19
g367
sg26
g367
sbsS'GlobalTrackingGeometryESProducer'
p372
g0
(g7
g2
Ntp373
Rp374
(dp375
g11
(lp376
sg14
I00
sg15
I00
sg16
I52
sg17
g18
sg19
g372
sg26
g372
sbsS'HFRecalParameterBlock'
p377
g0
(g57
g2
Ntp378
Rp379
(dp380
g14
I00
sg24
I01
sg15
I00
sS'HFdepthTwoParameterA'
p381
g0
(cFWCore.ParameterSet.Types
vdouble
p382
g34
(lp383
F0.002861
aF0.004168
aF0.0064
aF0.008388
aF0.011601
aF0.014425
aF0.018633
aF0.023232
aF0.028274
aF0.035447
aF0.051579
aF0.086593
atp384
Rp385
(dp386
g14
I00
sg24
I01
sg15
I00
sbsS'HFdepthOneParameterA'
p387
g0
(g382
g34
(lp388
F0.004123
aF0.00602
aF0.008201
aF0.010489
aF0.013379
aF0.016997
aF0.021464
aF0.027371
aF0.034195
aF0.044807
aF0.058939
aF0.125497
atp389
Rp390
(dp391
g14
I00
sg24
I01
sg15
I00
sbsS'HFdepthOneParameterB'
p392
g0
(g382
g34
(lp393
F-4e-06
aF-2e-06
aF0.0
aF4e-06
aF1.5e-05
aF2.6e-05
aF6.3e-05
aF8.4e-05
aF0.00016
aF0.000107
aF0.000425
aF0.000209
atp394
Rp395
(dp396
g14
I00
sg24
I01
sg15
I00
sbsS'HFdepthTwoParameterB'
p397
g0
(g382
g34
(lp398
F-2e-06
aF-0.0
aF-7e-06
aF-6e-06
aF-2e-06
aF1e-06
aF1.9e-05
aF3.1e-05
aF6.7e-05
aF1.2e-05
aF0.000157
aF-3e-06
atp399
Rp400
(dp401
g14
I00
sg24
I01
sg15
I00
sbsg11
(lp402
g387
ag392
ag397
ag381
asg19
g377
sbsS'trackerGeometryDB'
p403
g0
(g7
g2
Ntp404
Rp405
(dp406
g11
(lp407
g116
ag227
ag13
ag228
asg14
I00
sg116
g0
(g62
g2
Ntp408
Rp409
(dp410
g14
I00
sg24
I01
sg25
g66
sg15
I00
sbsg15
I00
sg228
g0
(g62
g2
Ntp411
Rp412
(dp413
g14
I00
sg24
I01
sg25
g66
sg15
I00
sbsg17
g18
sg16
I52
sg19
g403
sg227
g0
(g20
g2
Ntp414
Rp415
(dp416
g14
I00
sg24
I01
sg25
I00
sg15
I00
sbsg13
g0
(g20
g2
Ntp417
Rp418
(dp419
g14
I00
sg24
I01
sg25
I01
sg15
I00
sbsg26
S'TrackerDigiGeometryESModule'
p420
sbsS'stripCPEESProducer'
p421
g0
(g7
g2
Ntp422
Rp423
(dp424
g11
(lp425
g266
ag267
ag268
asg14
I00
sg15
I00
sg268
g0
(g57
g2
Ntp426
Rp427
(dp428
g14
I00
sg24
I01
sg15
I00
sg11
(lp429
sbsg16
I52
sg267
g0
(g62
g2
Ntp430
Rp431
(dp432
g14
I00
sg24
I01
sg25
S'stripCPE'
p433
sg15
I00
sbsg266
g0
(g62
g2
Ntp434
Rp435
(dp436
g14
I00
sg24
I01
sg25
S'SimpleStripCPE'
p437
sg15
I00
sbsg17
g18
sg19
g421
sg26
g333
sbsS'FedChannelDigis'
p438
g0
(cFWCore.ParameterSet.Modules
EDProducer
p439
g2
Ntp440
Rp441
(dp442
g11
(lp443
S'UseDaqRegister'
p444
aS'ProductLabel'
p445
aS'UnpackCommonModeValues'
p446
aS'AppendedBytes'
p447
aS'UseFedKey'
p448
aS'CreateDigis'
p449
aS'ErrorThreshold'
p450
aS'UnpackBadChannels'
p451
aS'MarkModulesOnMissingFeds'
p452
aS'TriggerFedId'
p453
aS'DoAllCorruptBufferChecks'
p454
aS'LegacyUnpacker'
p455
aS'DoAPVEmulatorCheck'
p456
asg14
I00
sg456
g0
(g20
g2
Ntp457
Rp458
(dp459
g14
I00
sg24
I01
sg25
I00
sg15
I00
sbsg15
I01
sg445
g0
(cFWCore.ParameterSet.Types
InputTag
p460
g2
Ntp461
Rp462
(dp463
g14
I00
sg24
I01
sg15
I00
sS'_InputTag__moduleLabel'
p464
S'rawDataCollector'
p465
sS'_InputTag__processName'
p466
g66
sS'_InputTag__productInstance'
p467
g66
sbsg17
S'/cvmfs/cms.cern.ch/slc6_amd64_gcc530/cms/cmssw/CMSSW_9_2_10/python/EventFilter/SiStripRawToDigi/FedChannelDigis_cfi.py'
p468
sg446
g0
(g20
g2
Ntp469
Rp470
(dp471
g14
I00
sg24
I01
sg25
I00
sg15
I00
sbsg447
g0
(cFWCore.ParameterSet.Types
int32
p472
g2
Ntp473
Rp474
(dp475
g14
I00
sg24
I01
sg25
I0
sg15
I00
sbsg448
g0
(g20
g2
Ntp476
Rp477
(dp478
g14
I00
sg24
I01
sg25
I01
sg15
I00
sbsg449
g0
(g20
g2
Ntp479
Rp480
(dp481
g14
I00
sg24
I00
sg25
I01
sg15
I00
sbsg455
g0
(g20
g2
Ntp482
Rp483
(dp484
g14
I00
sg24
I01
sg25
I00
sg15
I00
sbsg16
I17
sg26
S'SiStripRawToDigiModule'
p485
sg19
g438
sg454
g0
(g20
g2
Ntp486
Rp487
(dp488
g14
I00
sg24
I01
sg25
I00
sg15
I00
sbsg451
g0
(g20
g2
Ntp489
Rp490
(dp491
g14
I00
sg24
I01
sg25
I01
sg15
I00
sbsg452
g0
(g20
g2
Ntp492
Rp493
(dp494
g14
I00
sg24
I01
sg25
I01
sg15
I00
sbsg453
g0
(g472
g2
Ntp495
Rp496
(dp497
g14
I00
sg24
I01
sg25
I-1
sg15
I00
sbsg444
g0
(g20
g2
Ntp498
Rp499
(dp500
g14
I00
sg24
I01
sg25
I01
sg15
I00
sbsg450
g0
(cFWCore.ParameterSet.Types
uint32
p501
g2
Ntp502
Rp503
(dp504
g14
I00
sg24
I01
sg25
I7174
sg15
I00
sbsbsS'siStripLorentzAngleDepESProducer'
p505
g0
(g7
g2
Ntp506
Rp507
(dp508
g11
(lp509
g54
aS'LorentzAngleDeconvMode'
p510
aS'LorentzAnglePeakMode'
p511
asg14
I00
sg15
I00
sg16
I52
sg17
g18
sg54
g0
(g57
g2
Ntp512
Rp513
(dp514
g14
I00
sg24
I01
sg15
I00
sg61
g0
(g62
g2
Ntp515
Rp516
(dp517
g14
I00
sg24
I00
sg25
g66
sg15
I00
sbsg67
g0
(g62
g2
Ntp518
Rp519
(dp520
g14
I00
sg24
I01
sg25
g71
sg15
I00
sbsg11
(lp521
g67
ag61
asbsg19
g505
sg511
g0
(g57
g2
Ntp522
Rp523
(dp524
g14
I00
sg24
I01
sg15
I00
sg61
g0
(g62
g2
Ntp525
Rp526
(dp527
g14
I00
sg24
I00
sg25
g79
sg15
I00
sbsg67
g0
(g62
g2
Ntp528
Rp529
(dp530
g14
I00
sg24
I01
sg25
S'SiStripLorentzAngleRcd'
p531
sg15
I00
sbsg11
(lp532
g67
ag61
asbsg26
S'SiStripLorentzAngleDepESProducer'
p533
sg510
g0
(g57
g2
Ntp534
Rp535
(dp536
g14
I00
sg24
I01
sg15
I00
sg61
g0
(g62
g2
Ntp537
Rp538
(dp539
g14
I00
sg24
I00
sg25
g91
sg15
I00
sbsg67
g0
(g62
g2
Ntp540
Rp541
(dp542
g14
I00
sg24
I01
sg25
g531
sg15
I00
sbsg11
(lp543
g67
ag61
asbsbsS'hcalTopologyIdeal'
p544
g0
(g7
g2
Ntp545
Rp546
(dp547
g11
(lp548
S'MergePosition'
p549
aS'Exclude'
p550
ag116
asg14
I00
sg116
g0
(g62
g2
Ntp551
Rp552
(dp553
g14
I00
sg24
I01
sg25
g66
sg15
I00
sbsg15
I00
sg16
I52
sg549
g0
(g20
g2
Ntp554
Rp555
(dp556
g14
I00
sg24
I00
sg25
I01
sg15
I00
sbsg17
g18
sg19
g544
sg550
g0
(g62
g2
Ntp557
Rp558
(dp559
g14
I00
sg24
I00
sg25
g66
sg15
I00
sbsg26
S'HcalTopologyIdealEP'
p560
sbsS'_Process__psets'
p561
(dp562
S'maxEvents'
p563
g0
(g57
g2
Ntp564
Rp565
(dp566
g14
I00
sg24
I00
sg15
I00
sg11
(lp567
S'input'
p568
asg19
g563
sg568
g0
(g472
g2
Ntp569
Rp570
(dp571
g14
I00
sg24
I00
sg25
I500
sg15
I00
sbsbsg377
g379
ssS'hcal_db_producer'
p572
g0
(g7
g2
Ntp573
Rp574
(dp575
g11
(lp576
S'file'
p577
aS'dump'
p578
asg14
I00
sg15
I00
sg578
g0
(g33
g34
(lp579
g66
atp580
Rp581
(dp582
g14
I00
sg24
I00
sg15
I00
sg46
I1
sbsg16
I52
sg17
g18
sg577
g0
(g62
g2
Ntp583
Rp584
(dp585
g14
I00
sg24
I00
sg25
g66
sg15
I00
sbsg19
g572
sg26
S'HcalDbProducer'
p586
sbsS'p'
p587
g0
(cFWCore.ParameterSet.SequenceTypes
Path
p588
g2
Ntp589
Rp590
(dp591
g14
I00
sS'_seq'
p592
g0
(cFWCore.ParameterSet.SequenceTypes
_SequenceCollection
p593
g2
Ntp594
Rp595
(dp596
S'_collection'
p597
(lp598
g441
ag0
(cFWCore.ParameterSet.Modules
EDAnalyzer
p599
g2
Ntp600
Rp601
(dp602
g11
(lp603
S'SummaryInputModuleLabel'
p604
aS'CommissioningTask'
p605
aS'PedsFullNoiseParameters'
p606
aS'HistoUpdateFreq'
p607
aS'InputModuleLabel'
p608
aS'RootFileName'
p609
aS'View'
p610
asg14
I00
sg605
g0
(g62
g2
Ntp611
Rp612
(dp613
g14
I00
sg24
I00
sg25
S'PEDESTALS'
p614
sg15
I01
sbsg15
I01
sg606
g0
(g57
g2
Ntp615
Rp616
(dp617
g14
I00
sg24
I01
sS'FillNoiseProfile'
p618
g0
(g20
g2
Ntp619
Rp620
(dp621
g14
I00
sg24
I01
sg25
I00
sg15
I00
sbsS'NrEvForPeds'
p622
g0
(g472
g2
Ntp623
Rp624
(dp625
g14
I00
sg24
I01
sg25
I4000
sg15
I00
sbsg15
I00
sS'NrPosBinsNoiseHist'
p626
g0
(g472
g2
Ntp627
Rp628
(dp629
g14
I00
sg24
I01
sg25
I50
sg15
I00
sbsS'UseFloatPedestals'
p630
g0
(g20
g2
Ntp631
Rp632
(dp633
g14
I00
sg24
I01
sg25
I01
sg15
I00
sbsS'UseAverageCommonMode'
p634
g0
(g20
g2
Ntp635
Rp636
(dp637
g14
I00
sg24
I01
sg25
I01
sg15
I00
sbsg11
(lp638
g618
ag630
ag626
ag622
ag634
aS'NrEvToSkipAtStart'
p639
asg639
g0
(g472
g2
Ntp640
Rp641
(dp642
g14
I00
sg24
I01
sg25
I1000
sg15
I00
sbsbsg604
g0
(g62
g2
Ntp643
Rp644
(dp645
g14
I00
sg24
I01
sg25
g438
sg15
I00
sbsg607
g0
(g472
g2
Ntp646
Rp647
(dp648
g14
I00
sg24
I00
sg25
I500
sg15
I00
sbsg608
g0
(g62
g2
Ntp649
Rp650
(dp651
g14
I00
sg24
I01
sg25
g438
sg15
I00
sbsg609
g0
(g62
g2
Ntp652
Rp653
(dp654
g14
I00
sg24
I00
sg25
S'SiStripCommissioningSource'
p655
sg15
I00
sbsg16
I16
sg17
S'/cvmfs/cms.cern.ch/slc6_amd64_gcc530/cms/cmssw/CMSSW_9_2_10/python/DQM/SiStripCommissioningSources/CommissioningHistos_cfi.py'
p656
sg19
S'CommissioningHistos'
p657
sg26
g655
sg610
g0
(g62
g2
Ntp658
Rp659
(dp660
g14
I00
sg24
I00
sg25
S'Default'
p661
sg15
I00
sbsbasbsg19
g587
sg15
I00
sS'_tasks'
p662
g0
(cFWCore.ParameterSet.OrderedSet
OrderedSet
p663
g2
Ntp664
Rp665
(dp666
S'map'
p667
(dp668
sS'end'
p669
(lp670
Nag670
ag670
asbsbsS'_Process__essources'
p671
(dp672
S'es_hardcode'
p673
g0
(g337
g2
Ntp674
Rp675
(dp676
g14
I00
sg16
I155
sS'useHEUpgrade'
p677
g0
(g20
g2
Ntp678
Rp679
(dp680
g14
I00
sg24
I01
sg25
I00
sg15
I00
sbsS'HBRecalibration'
p681
g0
(g20
g2
Ntp682
Rp683
(dp684
g14
I00
sg24
I01
sg25
I00
sg15
I00
sbsS'useLayer0Weight'
p685
g0
(g20
g2
Ntp686
Rp687
(dp688
g14
I00
sg24
I01
sg25
I00
sg15
I00
sbsS'HEmeanenergies'
p689
g0
(cFWCore.ParameterSet.Types
FileInPath
p690
g2
Ntp691
Rp692
(dp693
g14
I00
sg24
I01
sg25
S'CalibCalorimetry/HcalPlugins/data/meanenergiesHE.txt'
p694
sg15
I00
sbsg377
g379
sS'heUpgrade'
p695
g0
(g57
g2
Ntp696
Rp697
(dp698
g14
I00
sg24
I01
sS'qieType'
p699
g0
(g472
g2
Ntp700
Rp701
(dp702
g14
I00
sg24
I01
sg25
I2
sg15
I00
sbsg15
I00
sS'pedestalWidth'
p703
g0
(g125
g2
Ntp704
Rp705
(dp706
g14
I00
sg24
I01
sg25
F1.5
sg15
I00
sbsS'recoShape'
p707
g0
(g472
g2
Ntp708
Rp709
(dp710
g14
I00
sg24
I01
sg25
I203
sg15
I00
sbsS'darkCurrent'
p711
g0
(g382
g34
(lp712
F0.01
aF0.015
atp713
Rp714
(dp715
g14
I00
sg24
I01
sg15
I00
sbsS'qieOffset'
p716
g0
(g382
g34
(lp717
F0.0
aF0.0
aF0.0
aF0.0
atp718
Rp719
(dp720
g14
I00
sg24
I01
sg15
I00
sbsS'qieSlope'
p721
g0
(g382
g34
(lp722
F0.05376
aF0.05376
aF0.05376
aF0.05376
atp723
Rp724
(dp725
g14
I00
sg24
I01
sg15
I00
sbsS'radiationDamage'
p726
g0
(g57
g2
Ntp727
Rp728
(dp729
g14
I00
sg24
I01
sS'temperatureNew'
p730
g0
(g125
g2
Ntp731
Rp732
(dp733
g14
I00
sg24
I01
sg25
I5
sg15
I00
sbsg15
I00
sS'depVsNeutrons'
p734
g0
(g382
g34
(lp735
F5.69e-11
aF7.9e-11
atp736
Rp737
(dp738
g14
I00
sg24
I01
sg15
I00
sbsS'temperatureBase'
p739
g0
(g125
g2
Ntp740
Rp741
(dp742
g14
I00
sg24
I01
sg25
I20
sg15
I00
sbsS'depVsTemp'
p743
g0
(g125
g2
Ntp744
Rp745
(dp746
g14
I00
sg24
I01
sg25
F0.0631
sg15
I00
sbsS'intlumiOffset'
p747
g0
(g125
g2
Ntp748
Rp749
(dp750
g14
I00
sg24
I01
sg25
I75
sg15
I00
sbsg11
(lp751
g730
ag734
ag739
ag743
ag747
aS'intlumiToNeutrons'
p752
asg752
g0
(g125
g2
Ntp753
Rp754
(dp755
g14
I00
sg24
I01
sg25
F29200000.0
sg15
I00
sbsbsS'doRadiationDamage'
p756
g0
(g20
g2
Ntp757
Rp758
(dp759
g14
I00
sg24
I01
sg25
I01
sg15
I00
sbsg11
(lp760
g699
ag703
ag707
aS'photoelectronsToAnalog'
p761
ag716
ag721
ag726
ag756
ag711
aS'pedestal'
p762
aS'mcShape'
p763
aS'gainWidth'
p764
aS'gain'
p765
asg761
g0
(g125
g2
Ntp766
Rp767
(dp768
g14
I00
sg24
I01
sg25
F44.0
sg15
I00
sbsg762
g0
(g125
g2
Ntp769
Rp770
(dp771
g14
I00
sg24
I01
sg25
F17.3
sg15
I00
sbsg763
g0
(g472
g2
Ntp772
Rp773
(dp774
g14
I00
sg24
I01
sg25
I203
sg15
I00
sbsg764
g0
(g382
g34
(lp775
I0
atp776
Rp777
(dp778
g14
I00
sg24
I01
sg15
I00
sbsg765
g0
(g382
g34
(lp779
F0.0004393673110720562
atp780
Rp781
(dp782
g14
I00
sg24
I01
sg15
I00
sbsbsg11
(lp783
S'toGet'
p784
ag681
ag685
ag689
ag377
ag695
aS'useHOUpgrade'
p785
aS'killHE'
p786
aS'useHBUpgrade'
p787
aS'hbUpgrade'
p788
aS'testHEPlan1'
p789
aS'iLumi'
p790
aS'testHFQIE10'
p791
aS'HBmeanenergies'
p792
ag677
aS'GainWidthsForTrigPrims'
p793
aS'HBreCalibCutoff'
p794
aS'HFRecalibration'
p795
aS'ho'
p796
aS'hb'
p797
aS'hf'
p798
aS'he'
p799
aS'HERecalibration'
p800
aS'useHFUpgrade'
p801
aS'HEreCalibCutoff'
p802
aS'SiPMCharacteristics'
p803
aS'hfUpgrade'
p804
asg17
S'/cvmfs/cms.cern.ch/slc6_amd64_gcc530/cms/cmssw/CMSSW_9_2_10/python/CalibCalorimetry/HcalPlugins/Hcal_Conditions_forGlobalTag_cff.py'
p805
sg785
g0
(g20
g2
Ntp806
Rp807
(dp808
g14
I00
sg24
I01
sg25
I01
sg15
I00
sbsg786
g0
(g20
g2
Ntp809
Rp810
(dp811
g14
I00
sg24
I01
sg25
I00
sg15
I00
sbsg787
g0
(g20
g2
Ntp812
Rp813
(dp814
g14
I00
sg24
I01
sg25
I00
sg15
I00
sbsg788
g0
(g57
g2
Ntp815
Rp816
(dp817
g14
I00
sg24
I01
sg699
g0
(g472
g2
Ntp818
Rp819
(dp820
g14
I00
sg24
I01
sg25
I2
sg15
I00
sbsg15
I00
sg703
g0
(g125
g2
Ntp821
Rp822
(dp823
g14
I00
sg24
I01
sg25
F1.5
sg15
I00
sbsg707
g0
(g472
g2
Ntp824
Rp825
(dp826
g14
I00
sg24
I01
sg25
I203
sg15
I00
sbsg711
g0
(g382
g34
(lp827
F0.01
aF0.015
atp828
Rp829
(dp830
g14
I00
sg24
I01
sg15
I00
sbsg716
g0
(g382
g34
(lp831
F0.0
aF0.0
aF0.0
aF0.0
atp832
Rp833
(dp834
g14
I00
sg24
I01
sg15
I00
sbsg721
g0
(g382
g34
(lp835
F0.05376
aF0.05376
aF0.05376
aF0.05376
atp836
Rp837
(dp838
g14
I00
sg24
I01
sg15
I00
sbsg726
g0
(g57
g2
Ntp839
Rp840
(dp841
g14
I00
sg24
I01
sg730
g0
(g125
g2
Ntp842
Rp843
(dp844
g14
I00
sg24
I01
sg25
I-5
sg15
I00
sbsg15
I00
sg734
g0
(g382
g34
(lp845
F5.69e-11
aF7.9e-11
atp846
Rp847
(dp848
g14
I00
sg24
I01
sg15
I00
sbsg739
g0
(g125
g2
Ntp849
Rp850
(dp851
g14
I00
sg24
I01
sg25
I20
sg15
I00
sbsg743
g0
(g125
g2
Ntp852
Rp853
(dp854
g14
I00
sg24
I01
sg25
F0.0631
sg15
I00
sbsg747
g0
(g125
g2
Ntp855
Rp856
(dp857
g14
I00
sg24
I01
sg25
I150
sg15
I00
sbsg11
(lp858
g730
ag734
ag739
ag743
ag747
ag752
asg752
g0
(g125
g2
Ntp859
Rp860
(dp861
g14
I00
sg24
I01
sg25
F367000000.0
sg15
I00
sbsbsg756
g0
(g20
g2
Ntp862
Rp863
(dp864
g14
I00
sg24
I01
sg25
I01
sg15
I00
sbsg11
(lp865
g699
ag703
ag707
ag761
ag716
ag721
ag726
ag756
ag711
ag762
ag763
ag764
ag765
asg761
g0
(g125
g2
Ntp866
Rp867
(dp868
g14
I00
sg24
I01
sg25
F44.0
sg15
I00
sbsg762
g0
(g125
g2
Ntp869
Rp870
(dp871
g14
I00
sg24
I01
sg25
F17.3
sg15
I00
sbsg763
g0
(g472
g2
Ntp872
Rp873
(dp874
g14
I00
sg24
I01
sg25
I203
sg15
I00
sbsg764
g0
(g382
g34
(lp875
I0
atp876
Rp877
(dp878
g14
I00
sg24
I01
sg15
I00
sbsg765
g0
(g382
g34
(lp879
F0.0004393673110720562
atp880
Rp881
(dp882
g14
I00
sg24
I01
sg15
I00
sbsbsg26
S'HcalHardcodeCalibrations'
p883
sg789
g0
(g20
g2
Ntp884
Rp885
(dp886
g14
I00
sg24
I01
sg25
I00
sg15
I00
sbsg790
g0
(g125
g2
Ntp887
Rp888
(dp889
g14
I00
sg24
I01
sg25
F-1.0
sg15
I00
sbsg791
g0
(g20
g2
Ntp890
Rp891
(dp892
g14
I00
sg24
I01
sg25
I00
sg15
I00
sbsg792
g0
(g690
g2
Ntp893
Rp894
(dp895
g14
I00
sg24
I01
sg25
S'CalibCalorimetry/HcalPlugins/data/meanenergiesHB.txt'
p896
sg15
I00
sbsg784
g0
(g33
g34
(lp897
S'GainWidths'
p898
atp899
Rp900
(dp901
g14
I00
sg24
I00
sg15
I00
sg46
I1
sbsg793
g0
(g20
g2
Ntp902
Rp903
(dp904
g14
I00
sg24
I01
sg25
I00
sg15
I00
sbsg794
g0
(g125
g2
Ntp905
Rp906
(dp907
g14
I00
sg24
I01
sg25
F20.0
sg15
I00
sbsg795
g0
(g20
g2
Ntp908
Rp909
(dp910
g14
I00
sg24
I01
sg25
I00
sg15
I00
sbsg796
g0
(g57
g2
Ntp911
Rp912
(dp913
g14
I00
sg24
I01
sg699
g0
(g472
g2
Ntp914
Rp915
(dp916
g14
I00
sg24
I01
sg25
I0
sg15
I00
sbsg15
I00
sg703
g0
(g125
g2
Ntp917
Rp918
(dp919
g14
I00
sg24
I01
sg25
F0.6285
sg15
I00
sbsg707
g0
(g472
g2
Ntp920
Rp921
(dp922
g14
I00
sg24
I01
sg25
I201
sg15
I00
sbsg711
g0
(g382
g34
(lp923
F0.0
atp924
Rp925
(dp926
g14
I00
sg24
I01
sg15
I00
sbsg716
g0
(g382
g34
(lp927
F-0.44
aF1.4
aF7.1
aF38.5
atp928
Rp929
(dp930
g14
I00
sg24
I01
sg15
I00
sbsg721
g0
(g382
g34
(lp931
F0.907
aF0.915
aF0.92
aF0.921
atp932
Rp933
(dp934
g14
I00
sg24
I01
sg15
I00
sbsg765
g0
(g382
g34
(lp935
F0.006
aF0.0087
atp936
Rp937
(dp938
g14
I00
sg24
I01
sg15
I00
sbsg756
g0
(g20
g2
Ntp939
Rp940
(dp941
g14
I00
sg24
I01
sg25
I00
sg15
I00
sbsg11
(lp942
g699
ag703
ag707
ag761
ag716
ag721
ag765
ag756
ag711
ag762
ag763
ag764
asg761
g0
(g125
g2
Ntp943
Rp944
(dp945
g14
I00
sg24
I01
sg25
F4.0
sg15
I00
sbsg762
g0
(g125
g2
Ntp946
Rp947
(dp948
g14
I00
sg24
I01
sg25
F12.06
sg15
I00
sbsg763
g0
(g472
g2
Ntp949
Rp950
(dp951
g14
I00
sg24
I01
sg25
I201
sg15
I00
sbsg764
g0
(g382
g34
(lp952
F0.0
aF0.0
atp953
Rp954
(dp955
g14
I00
sg24
I01
sg15
I00
sbsbsg797
g0
(g57
g2
Ntp956
Rp957
(dp958
g14
I00
sg24
I01
sg699
g0
(g472
g2
Ntp959
Rp960
(dp961
g14
I00
sg24
I01
sg25
I0
sg15
I00
sbsg15
I00
sg703
g0
(g125
g2
Ntp962
Rp963
(dp964
g14
I00
sg24
I01
sg25
F0.809
sg15
I00
sbsg707
g0
(g472
g2
Ntp965
Rp966
(dp967
g14
I00
sg24
I01
sg25
I105
sg15
I00
sbsg711
g0
(g382
g34
(lp968
F0.0
atp969
Rp970
(dp971
g14
I00
sg24
I01
sg15
I00
sbsg716
g0
(g382
g34
(lp972
F-0.49
aF1.8
aF7.2
aF37.9
atp973
Rp974
(dp975
g14
I00
sg24
I01
sg15
I00
sbsg721
g0
(g382
g34
(lp976
F0.912
aF0.917
aF0.922
aF0.923
atp977
Rp978
(dp979
g14
I00
sg24
I01
sg15
I00
sbsg765
g0
(g382
g34
(lp980
F0.19
atp981
Rp982
(dp983
g14
I00
sg24
I01
sg15
I00
sbsg756
g0
(g20
g2
Ntp984
Rp985
(dp986
g14
I00
sg24
I01
sg25
I00
sg15
I00
sbsg11
(lp987
g699
ag703
ag707
ag761
ag716
ag721
ag765
ag756
ag711
ag762
ag763
ag764
asg761
g0
(g125
g2
Ntp988
Rp989
(dp990
g14
I00
sg24
I01
sg25
F0.3305
sg15
I00
sbsg762
g0
(g125
g2
Ntp991
Rp992
(dp993
g14
I00
sg24
I01
sg25
F3.285
sg15
I00
sbsg763
g0
(g472
g2
Ntp994
Rp995
(dp996
g14
I00
sg24
I01
sg25
I125
sg15
I00
sbsg764
g0
(g382
g34
(lp997
F0.0
atp998
Rp999
(dp1000
g14
I00
sg24
I01
sg15
I00
sbsbsg798
g0
(g57
g2
Ntp1001
Rp1002
(dp1003
g14
I00
sg24
I01
sg699
g0
(g472
g2
Ntp1004
Rp1005
(dp1006
g14
I00
sg24
I01
sg25
I0
sg15
I00
sbsg15
I00
sg703
g0
(g125
g2
Ntp1007
Rp1008
(dp1009
g14
I00
sg24
I01
sg25
F2.516
sg15
I00
sbsg707
g0
(g472
g2
Ntp1010
Rp1011
(dp1012
g14
I00
sg24
I01
sg25
I301
sg15
I00
sbsg711
g0
(g382
g34
(lp1013
F0.0
atp1014
Rp1015
(dp1016
g14
I00
sg24
I01
sg15
I00
sbsg716
g0
(g382
g34
(lp1017
F-0.87
aF1.4
aF7.8
aF-29.6
atp1018
Rp1019
(dp1020
g14
I00
sg24
I01
sg15
I00
sbsg721
g0
(g382
g34
(lp1021
F0.359
aF0.358
aF0.36
aF0.367
atp1022
Rp1023
(dp1024
g14
I00
sg24
I01
sg15
I00
sbsg765
g0
(g382
g34
(lp1025
F0.14
aF0.135
atp1026
Rp1027
(dp1028
g14
I00
sg24
I01
sg15
I00
sbsg756
g0
(g20
g2
Ntp1029
Rp1030
(dp1031
g14
I00
sg24
I01
sg25
I00
sg15
I00
sbsg11
(lp1032
g699
ag703
ag707
ag761
ag716
ag721
ag765
ag756
ag711
ag762
ag763
ag764
asg761
g0
(g125
g2
Ntp1033
Rp1034
(dp1035
g14
I00
sg24
I01
sg25
F0.0
sg15
I00
sbsg762
g0
(g125
g2
Ntp1036
Rp1037
(dp1038
g14
I00
sg24
I01
sg25
F9.354
sg15
I00
sbsg763
g0
(g472
g2
Ntp1039
Rp1040
(dp1041
g14
I00
sg24
I01
sg25
I301
sg15
I00
sbsg764
g0
(g382
g34
(lp1042
F0.0
aF0.0
atp1043
Rp1044
(dp1045
g14
I00
sg24
I01
sg15
I00
sbsbsg799
g0
(g57
g2
Ntp1046
Rp1047
(dp1048
g14
I00
sg24
I01
sg699
g0
(g472
g2
Ntp1049
Rp1050
(dp1051
g14
I00
sg24
I01
sg25
I0
sg15
I00
sbsg15
I00
sg703
g0
(g125
g2
Ntp1052
Rp1053
(dp1054
g14
I00
sg24
I01
sg25
F0.9698
sg15
I00
sbsg707
g0
(g472
g2
Ntp1055
Rp1056
(dp1057
g14
I00
sg24
I01
sg25
I105
sg15
I00
sbsg711
g0
(g382
g34
(lp1058
F0.0
atp1059
Rp1060
(dp1061
g14
I00
sg24
I01
sg15
I00
sbsg716
g0
(g382
g34
(lp1062
F-0.38
aF2.0
aF7.6
aF39.6
atp1063
Rp1064
(dp1065
g14
I00
sg24
I01
sg15
I00
sbsg721
g0
(g382
g34
(lp1066
F0.912
aF0.916
aF0.92
aF0.922
atp1067
Rp1068
(dp1069
g14
I00
sg24
I01
sg15
I00
sbsg765
g0
(g382
g34
(lp1070
F0.23
atp1071
Rp1072
(dp1073
g14
I00
sg24
I01
sg15
I00
sbsg756
g0
(g20
g2
Ntp1074
Rp1075
(dp1076
g14
I00
sg24
I01
sg25
I00
sg15
I00
sbsg11
(lp1077
g699
ag703
ag707
ag761
ag716
ag721
ag765
ag756
ag711
ag762
ag763
ag764
asg761
g0
(g125
g2
Ntp1078
Rp1079
(dp1080
g14
I00
sg24
I01
sg25
F0.3305
sg15
I00
sbsg762
g0
(g125
g2
Ntp1081
Rp1082
(dp1083
g14
I00
sg24
I01
sg25
F3.163
sg15
I00
sbsg763
g0
(g472
g2
Ntp1084
Rp1085
(dp1086
g14
I00
sg24
I01
sg25
I125
sg15
I00
sbsg764
g0
(g382
g34
(lp1087
I0
atp1088
Rp1089
(dp1090
g14
I00
sg24
I01
sg15
I00
sbsbsg15
I00
sg800
g0
(g20
g2
Ntp1091
Rp1092
(dp1093
g14
I00
sg24
I01
sg25
I00
sg15
I00
sbsg801
g0
(g20
g2
Ntp1094
Rp1095
(dp1096
g14
I00
sg24
I01
sg25
I00
sg15
I00
sbsg802
g0
(g125
g2
Ntp1097
Rp1098
(dp1099
g14
I00
sg24
I01
sg25
F20.0
sg15
I00
sbsg803
g0
(g135
g34
(lp1100
g0
(g57
g2
Ntp1101
Rp1102
(dp1103
g14
I00
sg24
I01
sg15
I00
sS'crosstalk'
p1104
g0
(g125
g2
Ntp1105
Rp1106
(dp1107
g14
I00
sg24
I01
sg25
F0.0
sg15
I00
sbsS'nonlin1'
p1108
g0
(g125
g2
Ntp1109
Rp1110
(dp1111
g14
I00
sg24
I01
sg25
F1.0
sg15
I00
sbsS'nonlin3'
p1112
g0
(g125
g2
Ntp1113
Rp1114
(dp1115
g14
I00
sg24
I01
sg25
F0.0
sg15
I00
sbsS'nonlin2'
p1116
g0
(g125
g2
Ntp1117
Rp1118
(dp1119
g14
I00
sg24
I01
sg25
F0.0
sg15
I00
sbsg11
(lp1120
g1108
ag1112
ag1116
aS'pixels'
p1121
ag1104
asg1121
g0
(g472
g2
Ntp1122
Rp1123
(dp1124
g14
I00
sg24
I01
sg25
I36000
sg15
I00
sbsbag0
(g57
g2
Ntp1125
Rp1126
(dp1127
g14
I00
sg24
I01
sg15
I00
sg1104
g0
(g125
g2
Ntp1128
Rp1129
(dp1130
g14
I00
sg24
I01
sg25
F0.0
sg15
I00
sbsg1108
g0
(g125
g2
Ntp1131
Rp1132
(dp1133
g14
I00
sg24
I01
sg25
F1.0
sg15
I00
sbsg1112
g0
(g125
g2
Ntp1134
Rp1135
(dp1136
g14
I00
sg24
I01
sg25
F0.0
sg15
I00
sbsg1116
g0
(g125
g2
Ntp1137
Rp1138
(dp1139
g14
I00
sg24
I01
sg25
F0.0
sg15
I00
sbsg11
(lp1140
g1108
ag1112
ag1116
ag1121
ag1104
asg1121
g0
(g472
g2
Ntp1141
Rp1142
(dp1143
g14
I00
sg24
I01
sg25
I2500
sg15
I00
sbsbag0
(g57
g2
Ntp1144
Rp1145
(dp1146
g14
I00
sg24
I01
sg15
I00
sg1104
g0
(g125
g2
Ntp1147
Rp1148
(dp1149
g14
I00
sg24
I01
sg25
F0.17
sg15
I00
sbsg1108
g0
(g125
g2
Ntp1150
Rp1151
(dp1152
g14
I00
sg24
I01
sg25
F1.00985
sg15
I00
sbsg1112
g0
(g125
g2
Ntp1153
Rp1154
(dp1155
g14
I00
sg24
I01
sg25
F2.86282e-10
sg15
I00
sbsg1116
g0
(g125
g2
Ntp1156
Rp1157
(dp1158
g14
I00
sg24
I01
sg25
F7.84089e-06
sg15
I00
sbsg11
(lp1159
g1108
ag1112
ag1116
ag1121
ag1104
asg1121
g0
(g472
g2
Ntp1160
Rp1161
(dp1162
g14
I00
sg24
I01
sg25
I27370
sg15
I00
sbsbag0
(g57
g2
Ntp1163
Rp1164
(dp1165
g14
I00
sg24
I01
sg15
I00
sg1104
g0
(g125
g2
Ntp1166
Rp1167
(dp1168
g14
I00
sg24
I01
sg25
F0.196
sg15
I00
sbsg1108
g0
(g125
g2
Ntp1169
Rp1170
(dp1171
g14
I00
sg24
I01
sg25
F1.00546
sg15
I00
sbsg1112
g0
(g125
g2
Ntp1172
Rp1173
(dp1174
g14
I00
sg24
I01
sg25
F1.27011e-10
sg15
I00
sbsg1116
g0
(g125
g2
Ntp1175
Rp1176
(dp1177
g14
I00
sg24
I01
sg25
F6.40239e-06
sg15
I00
sbsg11
(lp1178
g1108
ag1112
ag1116
ag1121
ag1104
asg1121
g0
(g472
g2
Ntp1179
Rp1180
(dp1181
g14
I00
sg24
I01
sg25
I38018
sg15
I00
sbsbag0
(g57
g2
Ntp1182
Rp1183
(dp1184
g14
I00
sg24
I01
sg15
I00
sg1104
g0
(g125
g2
Ntp1185
Rp1186
(dp1187
g14
I00
sg24
I01
sg25
F0.17
sg15
I00
sbsg1108
g0
(g125
g2
Ntp1188
Rp1189
(dp1190
g14
I00
sg24
I01
sg25
F1.00985
sg15
I00
sbsg1112
g0
(g125
g2
Ntp1191
Rp1192
(dp1193
g14
I00
sg24
I01
sg25
F2.86282e-10
sg15
I00
sbsg1116
g0
(g125
g2
Ntp1194
Rp1195
(dp1196
g14
I00
sg24
I01
sg25
F7.84089e-06
sg15
I00
sbsg11
(lp1197
g1108
ag1112
ag1116
ag1121
ag1104
asg1121
g0
(g472
g2
Ntp1198
Rp1199
(dp1200
g14
I00
sg24
I01
sg25
I27370
sg15
I00
sbsbag0
(g57
g2
Ntp1201
Rp1202
(dp1203
g14
I00
sg24
I01
sg15
I00
sg1104
g0
(g125
g2
Ntp1204
Rp1205
(dp1206
g14
I00
sg24
I01
sg25
F0.196
sg15
I00
sbsg1108
g0
(g125
g2
Ntp1207
Rp1208
(dp1209
g14
I00
sg24
I01
sg25
F1.00546
sg15
I00
sbsg1112
g0
(g125
g2
Ntp1210
Rp1211
(dp1212
g14
I00
sg24
I01
sg25
F1.27011e-10
sg15
I00
sbsg1116
g0
(g125
g2
Ntp1213
Rp1214
(dp1215
g14
I00
sg24
I01
sg25
F6.40239e-06
sg15
I00
sbsg11
(lp1216
g1108
ag1112
ag1116
ag1121
ag1104
asg1121
g0
(g472
g2
Ntp1217
Rp1218
(dp1219
g14
I00
sg24
I01
sg25
I38018
sg15
I00
sbsbag0
(g57
g2
Ntp1220
Rp1221
(dp1222
g14
I00
sg24
I01
sg15
I00
sg1104
g0
(g125
g2
Ntp1223
Rp1224
(dp1225
g14
I00
sg24
I01
sg25
F0.0
sg15
I00
sbsg1108
g0
(g125
g2
Ntp1226
Rp1227
(dp1228
g14
I00
sg24
I01
sg25
F1.0
sg15
I00
sbsg1112
g0
(g125
g2
Ntp1229
Rp1230
(dp1231
g14
I00
sg24
I01
sg25
F0.0
sg15
I00
sbsg1116
g0
(g125
g2
Ntp1232
Rp1233
(dp1234
g14
I00
sg24
I01
sg25
F0.0
sg15
I00
sbsg11
(lp1235
g1108
ag1112
ag1116
ag1121
ag1104
asg1121
g0
(g472
g2
Ntp1236
Rp1237
(dp1238
g14
I00
sg24
I01
sg25
I0
sg15
I00
sbsbatp1239
Rp1240
(dp1241
g14
I00
sg24
I01
sg15
I00
sg46
I1
sbsg19
g673
sg804
g0
(g57
g2
Ntp1242
Rp1243
(dp1244
g14
I00
sg24
I01
sg699
g0
(g472
g2
Ntp1245
Rp1246
(dp1247
g14
I00
sg24
I01
sg25
I1
sg15
I00
sbsg15
I00
sg703
g0
(g125
g2
Ntp1248
Rp1249
(dp1250
g14
I00
sg24
I01
sg25
F3.33
sg15
I00
sbsg707
g0
(g472
g2
Ntp1251
Rp1252
(dp1253
g14
I00
sg24
I01
sg25
I301
sg15
I00
sbsg711
g0
(g382
g34
(lp1254
F0.0
atp1255
Rp1256
(dp1257
g14
I00
sg24
I01
sg15
I00
sbsg716
g0
(g382
g34
(lp1258
F0.0697
aF-0.7405
aF12.38
aF-671.9
atp1259
Rp1260
(dp1261
g14
I00
sg24
I01
sg15
I00
sbsg721
g0
(g382
g34
(lp1262
F0.297
aF0.298
aF0.298
aF0.313
atp1263
Rp1264
(dp1265
g14
I00
sg24
I01
sg15
I00
sbsg765
g0
(g382
g34
(lp1266
F0.14
aF0.135
atp1267
Rp1268
(dp1269
g14
I00
sg24
I01
sg15
I00
sbsg756
g0
(g20
g2
Ntp1270
Rp1271
(dp1272
g14
I00
sg24
I01
sg25
I00
sg15
I00
sbsg11
(lp1273
g699
ag703
ag707
ag761
ag716
ag721
ag765
ag756
ag711
ag762
ag763
ag764
asg761
g0
(g125
g2
Ntp1274
Rp1275
(dp1276
g14
I00
sg24
I01
sg25
F0.0
sg15
I00
sbsg762
g0
(g125
g2
Ntp1277
Rp1278
(dp1279
g14
I00
sg24
I01
sg25
F13.33
sg15
I00
sbsg763
g0
(g472
g2
Ntp1280
Rp1281
(dp1282
g14
I00
sg24
I01
sg25
I301
sg15
I00
sbsg764
g0
(g382
g34
(lp1283
F0.0
aF0.0
atp1284
Rp1285
(dp1286
g14
I00
sg24
I01
sg15
I00
sbsbsbsg336
g339
sS'GlobalTag'
p1287
g0
(g337
g2
Ntp1288
Rp1289
(dp1290
g11
(lp1291
S'DBParameters'
p1292
aS'connect'
p1293
aS'globaltag'
p1294
aS'RefreshEachRun'
p1295
aS'pfnPrefix'
p1296
aS'snapshotTime'
p1297
ag784
aS'pfnPostfix'
p1298
aS'RefreshAlways'
p1299
aS'ReconnectEachRun'
p1300
aS'RefreshOpenIOVs'
p1301
aS'DumpStat'
p1302
asg14
I00
sg17
S'/cvmfs/cms.cern.ch/slc6_amd64_gcc530/cms/cmssw/CMSSW_9_2_10/python/CondCore/ESSources/CondDBESSource_cfi.py'
p1303
sg15
I01
sg1294
g0
(g62
g2
Ntp1304
Rp1305
(dp1306
g14
I00
sg24
I01
sg25
S'92X_dataRun2_v5'
p1307
sg15
I00
sbsg1295
g0
(g20
g2
Ntp1308
Rp1309
(dp1310
g14
I00
sg24
I00
sg25
I00
sg15
I00
sbsg1296
g0
(g62
g2
Ntp1311
Rp1312
(dp1313
g14
I00
sg24
I00
sg25
g66
sg15
I00
sbsg1297
g0
(g62
g2
Ntp1314
Rp1315
(dp1316
g14
I00
sg24
I01
sg25
g66
sg15
I00
sbsg784
g0
(g135
g34
(lp1317
tp1318
Rp1319
(dp1320
g14
I00
sg24
I01
sg15
I00
sg46
I1
sbsg1298
g0
(g62
g2
Ntp1321
Rp1322
(dp1323
g14
I00
sg24
I00
sg25
g66
sg15
I00
sbsg1292
g0
(g57
g2
Ntp1324
Rp1325
(dp1326
g14
I00
sg24
I01
sS'authenticationPath'
p1327
g0
(g62
g2
Ntp1328
Rp1329
(dp1330
g14
I00
sg24
I00
sg25
g66
sg15
I00
sbsg15
I00
sS'messageLevel'
p1331
g0
(g472
g2
Ntp1332
Rp1333
(dp1334
g14
I00
sg24
I00
sg25
I0
sg15
I00
sbsg11
(lp1335
g1331
aS'security'
p1336
aS'authenticationSystem'
p1337
ag1327
asg1336
g0
(g62
g2
Ntp1338
Rp1339
(dp1340
g14
I00
sg24
I00
sg25
g66
sg15
I00
sbsg1337
g0
(g472
g2
Ntp1341
Rp1342
(dp1343
g14
I00
sg24
I00
sg25
I0
sg15
I00
sbsbsg1299
g0
(g20
g2
Ntp1344
Rp1345
(dp1346
g14
I00
sg24
I00
sg25
I00
sg15
I00
sbsg16
I19
sg1293
g0
(g62
g2
Ntp1347
Rp1348
(dp1349
g14
I00
sg24
I01
sg25
S'frontier://FrontierProd/CMS_CONDITIONS'
p1350
sg15
I00
sbsg1300
g0
(g20
g2
Ntp1351
Rp1352
(dp1353
g14
I00
sg24
I00
sg25
I00
sg15
I00
sbsg19
g1287
sg1301
g0
(g20
g2
Ntp1354
Rp1355
(dp1356
g14
I00
sg24
I00
sg25
I00
sg15
I00
sbsg1302
g0
(g20
g2
Ntp1357
Rp1358
(dp1359
g14
I00
sg24
I00
sg25
I00
sg15
I00
sbsg26
S'PoolDBESSource'
p1360
sbssS'HcalAlignmentEP'
p1361
g0
(g7
g2
Ntp1362
Rp1363
(dp1364
g11
(lp1365
sg14
I00
sg15
I00
sg16
I52
sg17
g18
sg19
g1361
sg26
g1361
sbsS'EcalPreshowerGeometryFromDBEP'
p1366
g0
(g7
g2
Ntp1367
Rp1368
(dp1369
g11
(lp1370
g13
asg14
I00
sg15
I01
sg16
I52
sg17
g18
sg19
g1366
sg13
g0
(g20
g2
Ntp1371
Rp1372
(dp1373
g14
I00
sg24
I01
sg25
I01
sg15
I01
sbsg26
g1366
sbsS'CastorDbProducer'
p1374
g0
(g7
g2
Ntp1375
Rp1376
(dp1377
g11
(lp1378
g116
asg14
I00
sg116
g0
(g62
g2
Ntp1379
Rp1380
(dp1381
g14
I00
sg24
I01
sg25
g66
sg15
I00
sbsg15
I00
sg16
I52
sg17
g18
sg19
g1374
sg26
g1374
sbsS'hcalDDDRecConstants'
p1382
g0
(g7
g2
Ntp1383
Rp1384
(dp1385
g11
(lp1386
g116
asg14
I00
sg116
g0
(g62
g2
Ntp1387
Rp1388
(dp1389
g14
I00
sg24
I01
sg25
g66
sg15
I00
sbsg15
I00
sg16
I52
sg17
g18
sg19
g1382
sg26
S'HcalDDDRecConstantsESModule'
p1390
sbsg563
g565
sS'source'
p1391
g244
sS'CSCGeometryESModule'
p1392
g0
(g7
g2
Ntp1393
Rp1394
(dp1395
g11
(lp1396
g116
aS'useDDD'
p1397
aS'debugV'
p1398
aS'useGangedStripsInME1a'
p1399
ag228
aS'useOnlyWiresInME1a'
p1400
aS'useRealWireGeometry'
p1401
aS'useCentreTIOffsets'
p1402
ag13
asg14
I00
sg116
g0
(g62
g2
Ntp1403
Rp1404
(dp1405
g14
I00
sg24
I01
sg25
g66
sg15
I00
sbsg15
I00
sg1398
g0
(g20
g2
Ntp1406
Rp1407
(dp1408
g14
I00
sg24
I00
sg25
I00
sg15
I00
sbsg17
g18
sg1399
g0
(g20
g2
Ntp1409
Rp1410
(dp1411
g14
I00
sg24
I01
sg25
I01
sg15
I00
sbsg228
g0
(g62
g2
Ntp1412
Rp1413
(dp1414
g14
I00
sg24
I01
sg25
g66
sg15
I00
sbsg1400
g0
(g20
g2
Ntp1415
Rp1416
(dp1417
g14
I00
sg24
I01
sg25
I00
sg15
I00
sbsg1397
g0
(g20
g2
Ntp1418
Rp1419
(dp1420
g14
I00
sg24
I01
sg25
I00
sg15
I00
sbsg16
I52
sg1402
g0
(g20
g2
Ntp1421
Rp1422
(dp1423
g14
I00
sg24
I01
sg25
I00
sg15
I00
sbsg19
g1392
sg1401
g0
(g20
g2
Ntp1424
Rp1425
(dp1426
g14
I00
sg24
I01
sg25
I01
sg15
I00
sbsg13
g0
(g20
g2
Ntp1427
Rp1428
(dp1429
g14
I00
sg24
I01
sg25
I01
sg15
I00
sbsg26
g1392
sbsS'MuonDetLayerGeometryESProducer'
p1430
g0
(g7
g2
Ntp1431
Rp1432
(dp1433
g11
(lp1434
sg14
I00
sg15
I00
sg16
I52
sg17
g18
sg19
g1430
sg26
g1430
sbsS'EcalBarrelGeometryFromDBEP'
p1435
g0
(g7
g2
Ntp1436
Rp1437
(dp1438
g11
(lp1439
g13
asg14
I00
sg15
I01
sg16
I52
sg17
g18
sg19
g1435
sg13
g0
(g20
g2
Ntp1440
Rp1441
(dp1442
g14
I00
sg24
I01
sg25
I01
sg15
I01
sbsg26
g1435
sbsS'_Process__vpsets'
p1443
(dp1444
sS'EcalElectronicsMappingBuilder'
p1445
g0
(g7
g2
Ntp1446
Rp1447
(dp1448
g11
(lp1449
sg14
I00
sg15
I00
sg16
I52
sg17
g18
sg19
g1445
sg26
g1445
sbsS'_Process__name'
p1450
S'Source'
p1451
sg657
g601
sS'sistripconn'
p1452
g0
(g7
g2
Ntp1453
Rp1454
(dp1455
g11
(lp1456
sg14
I00
sg15
I00
sg16
I52
sg17
g18
sg19
g1452
sg26
S'SiStripConnectivity'
p1457
sbsg673
g675
sS'EcalTrigTowerConstituentsMapBuilder'
p1458
g0
(g7
g2
Ntp1459
Rp1460
(dp1461
g11
(lp1462
S'MapFile'
p1463
asg14
I00
sg15
I00
sg1463
g0
(g62
g2
Ntp1464
Rp1465
(dp1466
g14
I00
sg24
I00
sg25
S'Geometry/EcalMapping/data/EndCap_TTMap.txt'
p1467
sg15
I00
sbsg17
g18
sg16
I52
sg19
g1458
sg26
g1458
sbsS'trackerNumberingGeometryDB'
p1468
g0
(g7
g2
Ntp1469
Rp1470
(dp1471
g11
(lp1472
g116
ag227
asg14
I00
sg116
g0
(g62
g2
Ntp1473
Rp1474
(dp1475
g14
I00
sg24
I01
sg25
g66
sg15
I00
sbsg15
I00
sg16
I52
sg17
g18
sg19
g1468
sg227
g0
(g20
g2
Ntp1476
Rp1477
(dp1478
g14
I00
sg24
I01
sg25
I00
sg15
I00
sbsg26
S'TrackerGeometricDetESModule'
p1479
sbsS'idealForDigiCSCGeometry'
p1480
g0
(g7
g2
Ntp1481
Rp1482
(dp1483
g11
(lp1484
g116
ag1397
ag1398
ag1399
ag228
ag1400
ag1401
ag1402
ag13
asg14
I00
sg116
g0
(g62
g2
Ntp1485
Rp1486
(dp1487
g14
I00
sg24
I01
sg25
S'idealForDigi'
p1488
sg15
I01
sbsg15
I01
sg1398
g0
(g20
g2
Ntp1489
Rp1490
(dp1491
g14
I00
sg24
I00
sg25
I00
sg15
I00
sbsg17
S'/cvmfs/cms.cern.ch/slc6_amd64_gcc530/cms/cmssw/CMSSW_9_2_10/python/Geometry/CSCGeometryBuilder/idealForDigiCscGeometryDB_cff.py'
p1492
sg1399
g0
(g20
g2
Ntp1493
Rp1494
(dp1495
g14
I00
sg24
I01
sg25
I01
sg15
I00
sbsg228
g0
(g62
g2
Ntp1496
Rp1497
(dp1498
g14
I00
sg24
I01
sg25
S'fakeForIdeal'
p1499
sg15
I01
sbsg1400
g0
(g20
g2
Ntp1500
Rp1501
(dp1502
g14
I00
sg24
I01
sg25
I00
sg15
I00
sbsg1397
g0
(g20
g2
Ntp1503
Rp1504
(dp1505
g14
I00
sg24
I01
sg25
I00
sg15
I00
sbsg16
I8
sg1402
g0
(g20
g2
Ntp1506
Rp1507
(dp1508
g14
I00
sg24
I01
sg25
I00
sg15
I00
sbsg19
g1480
sg1401
g0
(g20
g2
Ntp1509
Rp1510
(dp1511
g14
I00
sg24
I01
sg25
I01
sg15
I00
sbsg13
g0
(g20
g2
Ntp1512
Rp1513
(dp1514
g14
I00
sg24
I01
sg25
I00
sg15
I01
sbsg26
g1392
sbsS'CaloTowerGeometryFromDBEP'
p1515
g0
(g7
g2
Ntp1516
Rp1517
(dp1518
g11
(lp1519
g13
asg14
I00
sg15
I00
sg16
I52
sg17
g18
sg19
g1515
sg13
g0
(g20
g2
Ntp1520
Rp1521
(dp1522
g14
I00
sg24
I01
sg25
I00
sg15
I00
sbsg26
g1515
sbsS'_Process__subProcesses'
p1523
(lp1524
sS'_cloneToObjectDict'
p1525
(dp1526
I140133575242576
g1470
sI140133574861776
g379
sI140133574861840
g574
sI140133574534672
g590
sI140133574751376
g0
(g7
g2
Ntp1527
Rp1528
(dp1529
g11
(lp1530
g13
asg14
I00
sg15
I00
sg16
I52
sg17
g18
sg19
S'ZdcGeometryFromDBEP'
p1531
sg13
g0
(g20
g2
Ntp1532
Rp1533
(dp1534
g14
I00
sg24
I01
sg25
I00
sg15
I00
sbsg26
g1531
sbsI140133574948048
g675
sI140133574817040
g0
(g7
g2
Ntp1535
Rp1536
(dp1537
g11
(lp1538
g116
ag227
ag13
ag228
asg14
I00
sg116
g0
(g62
g2
Ntp1539
Rp1540
(dp1541
g14
I00
sg24
I01
sg25
g1488
sg15
I01
sbsg15
I01
sg228
g0
(g62
g2
Ntp1542
Rp1543
(dp1544
g14
I00
sg24
I01
sg25
g1499
sg15
I01
sbsg17
S'/cvmfs/cms.cern.ch/slc6_amd64_gcc530/cms/cmssw/CMSSW_9_2_10/python/Geometry/DTGeometryBuilder/idealForDigiDtGeometryDB_cff.py'
p1545
sg16
I8
sg19
S'idealForDigiDTGeometry'
p1546
sg227
g0
(g20
g2
Ntp1547
Rp1548
(dp1549
g14
I00
sg24
I01
sg25
I00
sg15
I00
sbsg13
g0
(g20
g2
Ntp1550
Rp1551
(dp1552
g14
I00
sg24
I01
sg25
I00
sg15
I01
sbsg26
g222
sbsI140133575244432
g29
sI140133574993296
g263
sI140133575243216
g374
sI140133575243280
g0
(g7
g2
Ntp1553
Rp1554
(dp1555
g11
(lp1556
sg14
I00
sg15
I00
sg16
I52
sg17
g18
sg19
S'TrackerRecoGeometryESProducer'
p1557
sg26
g1557
sbsI140133575243408
g0
(g7
g2
Ntp1558
Rp1559
(dp1560
g11
(lp1561
g116
asg14
I00
sg116
g0
(g62
g2
Ntp1562
Rp1563
(dp1564
g14
I00
sg24
I01
sg25
g66
sg15
I00
sbsg15
I00
sg16
I52
sg17
g18
sg19
S'trackerTopology'
p1565
sg26
S'TrackerTopologyEP'
p1566
sbsI140133574948304
g0
(cFWCore.ParameterSet.Modules
ESPrefer
p1567
g2
Ntp1568
Rp1569
(dp1570
g11
(lp1571
sg14
I00
sg15
I00
sS'_targetLabel'
p1572
g673
sg16
I88
sg17
g18
sg19
S'es_prefer_hcalHardcode'
p1573
sg26
g883
sbsI140133574752016
g1460
sI140133574993168
g423
sI140133575245584
g1363
sI140133574950224
g0
(g7
g2
Ntp1574
Rp1575
(dp1576
g11
(lp1577
S'printDebug'
p1578
ag116
aS'APVGain'
p1579
aS'AutomaticNormalization'
p1580
asg14
I00
sg116
g0
(g62
g2
Ntp1581
Rp1582
(dp1583
g14
I00
sg24
I01
sg25
g66
sg15
I00
sbsg15
I00
sg1580
g0
(g20
g2
Ntp1584
Rp1585
(dp1586
g14
I00
sg24
I01
sg25
I00
sg15
I00
sbsg16
I52
sg1578
g0
(g20
g2
Ntp1587
Rp1588
(dp1589
g14
I00
sg24
I00
sg25
I00
sg15
I00
sbsg17
g18
sg1579
g0
(g135
g34
(lp1590
g0
(g57
g2
Ntp1591
Rp1592
(dp1593
g14
I00
sg24
I01
sg15
I00
sS'Label'
p1594
g0
(g62
g2
Ntp1595
Rp1596
(dp1597
g14
I00
sg24
I00
sg25
g66
sg15
I00
sbsS'Record'
p1598
g0
(g62
g2
Ntp1599
Rp1600
(dp1601
g14
I00
sg24
I01
sg25
S'SiStripApvGainRcd'
p1602
sg15
I00
sbsS'NormalizationFactor'
p1603
g0
(g125
g2
Ntp1604
Rp1605
(dp1606
g14
I00
sg24
I00
sg25
F1.0
sg15
I00
sbsg11
(lp1607
g1598
ag1603
ag1594
asbag0
(g57
g2
Ntp1608
Rp1609
(dp1610
g14
I00
sg24
I01
sg15
I00
sg1594
g0
(g62
g2
Ntp1611
Rp1612
(dp1613
g14
I00
sg24
I00
sg25
g66
sg15
I00
sbsg1598
g0
(g62
g2
Ntp1614
Rp1615
(dp1616
g14
I00
sg24
I01
sg25
S'SiStripApvGain2Rcd'
p1617
sg15
I00
sbsg1603
g0
(g125
g2
Ntp1618
Rp1619
(dp1620
g14
I00
sg24
I00
sg25
F1.0
sg15
I00
sbsg11
(lp1621
g1598
ag1603
ag1594
asbatp1622
Rp1623
(dp1624
g14
I00
sg24
I01
sg15
I00
sg46
I1
sbsg19
S'siStripGainESProducer'
p1625
sg26
S'SiStripGainESProducer'
p1626
sbsI140133575243984
g369
sI140133574752464
g1447
sI140133574750672
g546
sI140133574752720
g339
sI140133574533328
g441
sI140133574994640
g0
(g7
g2
Ntp1627
Rp1628
(dp1629
g11
(lp1630
S'PreFilter'
p1631
ag267
aS'NSigmaInside'
p1632
asg14
I00
sg15
I00
sg17
g18
sg267
g0
(g62
g2
Ntp1633
Rp1634
(dp1635
g14
I00
sg24
I01
sg25
S'StandardMatcher'
p1636
sg15
I00
sbsg1631
g0
(g20
g2
Ntp1637
Rp1638
(dp1639
g14
I00
sg24
I01
sg25
I00
sg15
I00
sbsg16
I52
sg1632
g0
(g125
g2
Ntp1640
Rp1641
(dp1642
g14
I00
sg24
I01
sg25
F3.0
sg15
I00
sbsg19
S'SiStripRecHitMatcherESProducer'
p1643
sg26
g1643
sbsI140133574948624
g1376
sI140133574819152
g1289
sI140133574495120
g1454
sI140133574753232
g0
(g7
g2
Ntp1644
Rp1645
(dp1646
g11
(lp1647
g116
asg14
I00
sg116
g0
(g62
g2
Ntp1648
Rp1649
(dp1650
g14
I00
sg24
I01
sg25
g66
sg15
I00
sbsg15
I00
sg16
I52
sg17
g18
sg19
S'hcalDDDSimConstants'
p1651
sg26
S'HcalDDDSimConstantsESModule'
p1652
sbsI140133575244816
g0
(g7
g2
Ntp1653
Rp1654
(dp1655
g11
(lp1656
g13
asg14
I00
sg15
I01
sg16
I52
sg17
g18
sg19
S'EcalEndcapGeometryFromDBEP'
p1657
sg13
g0
(g20
g2
Ntp1658
Rp1659
(dp1660
g14
I00
sg24
I01
sg25
I01
sg15
I01
sbsg26
g1657
sbsI140133574495312
g565
sI140133574753552
g1384
sI140133575243600
g1432
sI140133574751696
g361
sI140133574492816
g113
sI140133574753744
g0
(g7
g2
Ntp1661
Rp1662
(dp1663
g11
(lp1664
g116
ag227
ag13
ag228
asg14
I00
sg116
g0
(g62
g2
Ntp1665
Rp1666
(dp1667
g14
I00
sg24
I01
sg25
g1488
sg15
I01
sbsg15
I01
sg228
g0
(g62
g2
Ntp1668
Rp1669
(dp1670
g14
I00
sg24
I01
sg25
g1499
sg15
I01
sbsg17
S'/cvmfs/cms.cern.ch/slc6_amd64_gcc530/cms/cmssw/CMSSW_9_2_10/python/Geometry/TrackerGeometryBuilder/idealForDigiTrackerGeometryDB_cff.py'
p1671
sg16
I8
sg19
S'idealForDigiTrackerGeometry'
p1672
sg227
g0
(g20
g2
Ntp1673
Rp1674
(dp1675
g14
I00
sg24
I01
sg25
I00
sg15
I00
sbsg13
g0
(g20
g2
Ntp1676
Rp1677
(dp1678
g14
I00
sg24
I01
sg25
I00
sg15
I01
sbsg26
g420
sbsI140133575245072
g1437
sI140133575243024
g405
sI140133574995600
g0
(g7
g2
Ntp1679
Rp1680
(dp1681
g11
(lp1682
g121
asg14
I00
sg15
I01
sg16
I52
sg17
g18
sg121
g0
(g135
g34
(lp1683
g0
(g57
g2
Ntp1684
Rp1685
(dp1686
g14
I00
sg24
I01
sg15
I00
sg67
g0
(g62
g2
Ntp1687
Rp1688
(dp1689
g14
I00
sg24
I01
sg25
S'SiPixelQualityFromDbRcd'
p1690
sg15
I00
sbsg144
g0
(g62
g2
Ntp1691
Rp1692
(dp1693
g14
I00
sg24
I01
sg25
g66
sg15
I00
sbsg11
(lp1694
g67
ag144
asbag0
(g57
g2
Ntp1695
Rp1696
(dp1697
g14
I00
sg24
I01
sg15
I00
sg67
g0
(g62
g2
Ntp1698
Rp1699
(dp1700
g14
I00
sg24
I01
sg25
S'SiPixelDetVOffRcd'
p1701
sg15
I00
sbsg144
g0
(g62
g2
Ntp1702
Rp1703
(dp1704
g14
I00
sg24
I01
sg25
g66
sg15
I00
sbsg11
(lp1705
g67
ag144
asbatp1706
Rp1707
(dp1708
g14
I00
sg24
I01
sg15
I00
sg46
I1
sbsg19
S'siPixelQualityESProducer'
p1709
sg26
S'SiPixelQualityESProducer'
p1710
sbsI140133575245520
g9
sI140133575118608
g0
(g7
g2
Ntp1711
Rp1712
(dp1713
g11
(lp1714
g1397
aS'compatibiltyWith11'
p1715
asg14
I00
sg15
I00
sg16
I52
sg17
g18
sg1397
g0
(g20
g2
Ntp1716
Rp1717
(dp1718
g14
I00
sg24
I00
sg25
I00
sg15
I00
sbsg1715
g0
(g20
g2
Ntp1719
Rp1720
(dp1721
g14
I00
sg24
I00
sg25
I01
sg15
I00
sbsg19
S'RPCGeometryESModule'
p1722
sg26
g1722
sbsI140133574819664
g0
(g7
g2
Ntp1723
Rp1724
(dp1725
g11
(lp1726
sg14
I00
sg15
I00
sg16
I52
sg17
g18
sg19
S'EcalLaserCorrectionService'
p1727
sg26
g1727
sbsI140133575244944
g1368
sI140133575118160
g1394
sI140133574750352
g1517
sI140133574815952
g0
(g7
g2
Ntp1728
Rp1729
(dp1730
g11
(lp1731
g116
asg14
I00
sg116
g0
(g62
g2
Ntp1732
Rp1733
(dp1734
g14
I00
sg24
I01
sg25
g1499
sg15
I01
sbsg15
I01
sg16
I5
sg17
S'/cvmfs/cms.cern.ch/slc6_amd64_gcc530/cms/cmssw/CMSSW_9_2_10/python/Alignment/CommonAlignmentProducer/fakeForIdealAlignmentProducer_cfi.py'
p1735
sg19
S'fakeForIdealAlignment'
p1736
sg26
S'FakeAlignmentProducer'
p1737
sbsI140133574992848
g51
sI140133574992144
g507
sI140133574816208
g1482
sI140133574994768
g0
(g7
g2
Ntp1738
Rp1739
(dp1740
g11
(lp1741
sg14
I00
sg15
I00
sg16
I52
sg17
g18
sg19
Nsg26
g1457
sbsI140133575242192
g224
sI140133574750864
g0
(g7
g2
Ntp1742
Rp1743
(dp1744
g11
(lp1745
sg14
I00
sg15
I00
sg16
I52
sg17
g18
sg19
S'CaloTowerTopologyEP'
p1746
sg26
g1746
sbsI140133574534608
g601
ssg1746
g1743
sg1625
g1575
sg1643
g1628
sg1722
g1712
sg1546
g1536
sg1651
g1645
sS'_Process__esprefers'
p1747
(dp1748
g1573
g1569
ssg1531
g1528
sS'_Process__schedule'
p1749
Nsg1657
g1654
sS'_Process__outputmodules'
p1750
(dp1751
sS'_Process__analyzers'
p1752
(dp1753
g657
g601
ssS'_Process__InExtendCall'
p1754
I00
sg1727
g1724
sg1573
g1569
sg1672
g1662
sS'_Process__modifiers'
p1755
(tsS'_Process__producers'
p1756
(dp1757
g438
g441
ssg1709
g1680
sg1287
g1289
sS'_Process__filters'
p1758
(dp1759
sg260
g244
sS'_Process__looper'
p1760
NsS'_Process__endpaths'
p1761
g0
(cFWCore.ParameterSet.DictTypes
SortedKeysDict
p1762
c__builtin__
dict
p1763
(dp1764
tp1765
Rp1766
(dp1767
S'list'
p1768
(lp1769
sbsS'_Process__esproducers'
p1770
(dp1771
g27
g29
sg1727
g1724
sg1557
g1554
sg261
g263
sg359
g361
sg367
g369
sg372
g374
sg403
g405
sg505
g507
sg544
g546
sg1361
g1363
sg1366
g1368
sg1374
g1376
sg1382
g1384
sg1392
g1394
sg1435
g1437
sg1468
g1470
sg1445
g1447
sg1458
g1460
sg1480
g1482
sg1515
g1517
sg49
g51
sg572
g574
sg1625
g1575
sg1643
g1628
sg1722
g1712
sg1546
g1536
sg1531
g1528
sg222
g224
sg111
g113
sg1452
g1454
sg1672
g1662
sg1746
g1743
sg1709
g1680
sg421
g423
sg1651
g1645
sg1430
g1432
sg1565
g1559
sg1657
g1654
sg1736
g1729
sg6
g9
ssS'_Process__tasks'
p1772
(dp1773
sg99
g102
sS'_Process__paths'
p1774
g0
(g1762
g1763
(dp1775
g587
g590
stp1776
Rp1777
(dp1778
g1768
(lp1779
g587
asbsg1565
g1559
sg1557
g1554
sS'_Process__partialschedules'
p1780
(dp1781
sg1736
g1729
sS'_Process__isStrict'
p1782
I00
sb.