ccopy_reg
_reconstructor
p0
(cFWCore.ParameterSet.Config
Process
p1
c__builtin__
object
p2
Ntp3
Rp4
(dp5
S'HcalGeometryFromDBEP'
p6
g0
(cFWCore.ParameterSet.Modules
ESProducer
p7
g2
Ntp8
Rp9
(dp10
S'_Parameterizable__parameterNames'
p11
(lp12
S'applyAlignment'
p13
asS'_isFrozen'
p14
I00
sS'_isModified'
p15
I01
sS'_lineNumber'
p16
I52
sS'_filename'
p17
S'/cvmfs/cms.cern.ch/slc6_amd64_gcc530/cms/cmssw/CMSSW_9_2_10/python/FWCore/ParameterSet/Modules.py'
p18
sS'_Labelable__label'
p19
g6
sg13
g0
(cFWCore.ParameterSet.Types
bool
p20
g2
Ntp21
Rp22
(dp23
g14
I00
sS'_ParameterTypeBase__isTracked'
p24
I01
sS'_value'
p25
I01
sg15
I01
sbsS'_TypedParameterizable__type'
p26
g6
sbsS'CaloGeometryBuilder'
p27
g0
(g7
g2
Ntp28
Rp29
(dp30
g11
(lp31
S'SelectedCalos'
p32
asg14
I00
sg15
I00
sg16
I52
sg17
g18
sg32
g0
(cFWCore.ParameterSet.Types
vstring
p33
c__builtin__
list
p34
(lp35
S'HCAL'
p36
aS'ZDC'
p37
aS'CASTOR'
p38
aS'EcalBarrel'
p39
aS'EcalEndcap'
p40
aS'EcalPreshower'
p41
aS'TOWER'
p42
atp43
Rp44
(dp45
g14
I00
sg24
I01
sg15
I00
sS'_nPerLine'
p46
I1
sbsg19
g27
sg26
g27
sbsS'_Process__sequences'
p47
(dp48
sS'siStripBackPlaneCorrectionDepESProducer'
p49
g0
(g7
g2
Ntp50
Rp51
(dp52
g11
(lp53
S'LatencyRecord'
p54
aS'BackPlaneCorrectionDeconvMode'
p55
aS'BackPlaneCorrectionPeakMode'
p56
asg14
I00
sg15
I00
sg16
I52
sg17
g18
sg54
g0
(cFWCore.ParameterSet.Types
PSet
p57
g2
Ntp58
Rp59
(dp60
g14
I00
sg24
I01
sg15
I00
sS'label'
p61
g0
(cFWCore.ParameterSet.Types
string
p62
g2
Ntp63
Rp64
(dp65
g14
I00
sg24
I00
sg25
S''
p66
sg15
I00
sbsS'record'
p67
g0
(g62
g2
Ntp68
Rp69
(dp70
g14
I00
sg24
I01
sg25
S'SiStripLatencyRcd'
p71
sg15
I00
sbsg11
(lp72
g67
ag61
asbsg56
g0
(g57
g2
Ntp73
Rp74
(dp75
g14
I00
sg24
I01
sg15
I00
sg61
g0
(g62
g2
Ntp76
Rp77
(dp78
g14
I00
sg24
I00
sg25
S'peak'
p79
sg15
I00
sbsg67
g0
(g62
g2
Ntp80
Rp81
(dp82
g14
I00
sg24
I01
sg25
S'SiStripBackPlaneCorrectionRcd'
p83
sg15
I00
sbsg11
(lp84
g67
ag61
asbsg19
g49
sg55
g0
(g57
g2
Ntp85
Rp86
(dp87
g14
I00
sg24
I01
sg15
I00
sg61
g0
(g62
g2
Ntp88
Rp89
(dp90
g14
I00
sg24
I00
sg25
S'deconvolution'
p91
sg15
I00
sbsg67
g0
(g62
g2
Ntp92
Rp93
(dp94
g14
I00
sg24
I01
sg25
g83
sg15
I00
sbsg11
(lp95
g67
ag61
asbsg26
S'SiStripBackPlaneCorrectionDepESProducer'
p96
sbsS'_Process__services'
p97
(dp98
S'SiStripDetInfoFileReader'
p99
g0
(cFWCore.ParameterSet.Modules
Service
p100
g2
Ntp101
Rp102
(dp103
g11
(lp104
sg14
I00
sS'_inProcess'
p105
I01
sg15
I00
sg16
I10
sg17
g18
sg26
g99
sbsS'DQMStore'
p106
g0
(g100
g2
Ntp107
Rp108
(dp109
g11
(lp110
sg14
I00
sg105
I01
sg15
I00
sg16
I10
sg17
g18
sg26
g106
sbssS'siStripQualityESProducer'
p111
g0
(g7
g2
Ntp112
Rp113
(dp114
g11
(lp115
S'appendToDataLabel'
p116
aS'PrintDebugOutput'
p117
aS'ThresholdForReducedGranularity'
p118
aS'UseEmptyRunInfo'
p119
aS'ReduceGranularity'
p120
aS'ListOfRecordToMerge'
p121
asg14
I00
sg116
g0
(g62
g2
Ntp122
Rp123
(dp124
g14
I00
sg24
I01
sg25
g66
sg15
I00
sbsg15
I01
sg16
I52
sg17
g18
sg118
g0
(cFWCore.ParameterSet.Types
double
p125
g2
Ntp126
Rp127
(dp128
g14
I00
sg24
I01
sg25
F0.3
sg15
I00
sbsg19
g111
sg119
g0
(g20
g2
Ntp129
Rp130
(dp131
g14
I00
sg24
I01
sg25
I00
sg15
I00
sbsg120
g0
(g20
g2
Ntp132
Rp133
(dp134
g14
I00
sg24
I01
sg25
I00
sg15
I00
sbsg121
g0
(cFWCore.ParameterSet.Types
VPSet
p135
g34
(lp136
g0
(g57
g2
Ntp137
Rp138
(dp139
g14
I00
sg24
I01
sg15
I00
sg67
g0
(g62
g2
Ntp140
Rp141
(dp142
g14
I00
sg24
I01
sg25
S'SiStripDetVOffRcd'
p143
sg15
I00
sbsS'tag'
p144
g0
(g62
g2
Ntp145
Rp146
(dp147
g14
I00
sg24
I01
sg25
g66
sg15
I00
sbsg11
(lp148
g67
ag144
asbag0
(g57
g2
Ntp149
Rp150
(dp151
g14
I00
sg24
I01
sg15
I00
sg67
g0
(g62
g2
Ntp152
Rp153
(dp154
g14
I00
sg24
I01
sg25
S'SiStripDetCablingRcd'
p155
sg15
I00
sbsg144
g0
(g62
g2
Ntp156
Rp157
(dp158
g14
I00
sg24
I01
sg25
g66
sg15
I00
sbsg11
(lp159
g67
ag144
asbag0
(g57
g2
Ntp160
Rp161
(dp162
g14
I00
sg24
I01
sg15
I00
sg67
g0
(g62
g2
Ntp163
Rp164
(dp165
g14
I00
sg24
I01
sg25
S'RunInfoRcd'
p166
sg15
I00
sbsg144
g0
(g62
g2
Ntp167
Rp168
(dp169
g14
I00
sg24
I01
sg25
g66
sg15
I00
sbsg11
(lp170
g67
ag144
asbag0
(g57
g2
Ntp171
Rp172
(dp173
g14
I00
sg24
I01
sg15
I00
sg67
g0
(g62
g2
Ntp174
Rp175
(dp176
g14
I00
sg24
I01
sg25
S'SiStripBadChannelRcd'
p177
sg15
I00
sbsg144
g0
(g62
g2
Ntp178
Rp179
(dp180
g14
I00
sg24
I01
sg25
g66
sg15
I00
sbsg11
(lp181
g67
ag144
asbag0
(g57
g2
Ntp182
Rp183
(dp184
g14
I00
sg24
I01
sg15
I00
sg67
g0
(g62
g2
Ntp185
Rp186
(dp187
g14
I00
sg24
I01
sg25
S'SiStripBadFiberRcd'
p188
sg15
I00
sbsg144
g0
(g62
g2
Ntp189
Rp190
(dp191
g14
I00
sg24
I01
sg25
g66
sg15
I00
sbsg11
(lp192
g67
ag144
asbag0
(g57
g2
Ntp193
Rp194
(dp195
g14
I00
sg24
I01
sg15
I00
sg67
g0
(g62
g2
Ntp196
Rp197
(dp198
g14
I00
sg24
I01
sg25
S'SiStripBadModuleRcd'
p199
sg15
I00
sbsg144
g0
(g62
g2
Ntp200
Rp201
(dp202
g14
I00
sg24
I01
sg25
g66
sg15
I00
sbsg11
(lp203
g67
ag144
asbag0
(g57
g2
Ntp204
Rp205
(dp206
g14
I00
sg24
I01
sg15
I00
sg67
g0
(g62
g2
Ntp207
Rp208
(dp209
g14
I00
sg24
I01
sg25
S'SiStripBadStripRcd'
p210
sg15
I00
sbsg144
g0
(g62
g2
Ntp211
Rp212
(dp213
g14
I00
sg24
I01
sg25
g66
sg15
I00
sbsg11
(lp214
g67
ag144
asbatp215
Rp216
(dp217
g14
I00
sg24
I01
sg15
I00
sg46
I1
sbsg26
S'SiStripQualityESProducer'
p218
sg117
g0
(g20
g2
Ntp219
Rp220
(dp221
g14
I00
sg24
I01
sg25
I00
sg15
I00
sbsbsg106
g108
sS'DTGeometryESModule'
p222
g0
(g7
g2
Ntp223
Rp224
(dp225
g11
(lp226
g116
aS'fromDDD'
p227
ag13
aS'alignmentsLabel'
p228
asg14
I00
sg116
g0
(g62
g2
Ntp229
Rp230
(dp231
g14
I00
sg24
I01
sg25
g66
sg15
I00
sbsg15
I00
sg228
g0
(g62
g2
Ntp232
Rp233
(dp234
g14
I00
sg24
I01
sg25
g66
sg15
I00
sbsg17
g18
sg16
I52
sg19
g222
sg227
g0
(g20
g2
Ntp235
Rp236
(dp237
g14
I00
sg24
I01
sg25
I00
sg15
I00
sbsg13
g0
(g20
g2
Ntp238
Rp239
(dp240
g14
I00
sg24
I01
sg25
I01
sg15
I00
sbsg26
g222
sbsS'_Process__source'
p241
g0
(cFWCore.ParameterSet.Modules
Source
p242
g2
Ntp243
Rp244
(dp245
g11
(lp246
S'eventsToProcess'
p247
aS'fileNames'
p248
asg14
I00
sg247
g0
(cFWCore.ParameterSet.Types
VEventRange
p249
g34
(lp250
S'303314:61762-303314:81449'
p251
atp252
Rp253
(dp254
g14
I00
sg24
I00
sg15
I00
sbsg15
I00
sg16
I192
sg17
g18
sg248
g0
(g33
g34
(lp255
tp256
Rp257
(dp258
g14
I00
sg24
I00
sg15
I00
sg46
I1
sbsg26
S'PoolSource'
p259
sbsS'StripCPEfromTrackAngleESProducer'
p260
g0
(g7
g2
Ntp261
Rp262
(dp263
g11
(lp264
S'ComponentType'
p265
aS'ComponentName'
p266
aS'parameters'
p267
asg14
I00
sg15
I01
sg267
g0
(g57
g2
Ntp268
Rp269
(dp270
g14
I00
sg24
I01
sS'maxChgOneMIP'
p271
g0
(g125
g2
Ntp272
Rp273
(dp274
g14
I00
sg24
I01
sg25
F6000.0
sg15
I00
sbsS'mLC_P2'
p275
g0
(g125
g2
Ntp276
Rp277
(dp278
g14
I00
sg24
I01
sg25
F0.3
sg15
I00
sbsS'mLC_P1'
p279
g0
(g125
g2
Ntp280
Rp281
(dp282
g14
I00
sg24
I01
sg25
F0.618
sg15
I00
sbsS'mLC_P0'
p283
g0
(g125
g2
Ntp284
Rp285
(dp286
g14
I00
sg24
I01
sg25
F-0.326
sg15
I00
sbsS'useLegacyError'
p287
g0
(g20
g2
Ntp288
Rp289
(dp290
g14
I00
sg24
I01
sg25
I00
sg15
I00
sbsS'mTIB_P1'
p291
g0
(g125
g2
Ntp292
Rp293
(dp294
g14
I00
sg24
I01
sg25
F0.202
sg15
I00
sbsS'mTEC_P1'
p295
g0
(g125
g2
Ntp296
Rp297
(dp298
g14
I00
sg24
I01
sg25
F0.471
sg15
I00
sbsS'mTEC_P0'
p299
g0
(g125
g2
Ntp300
Rp301
(dp302
g14
I00
sg24
I01
sg25
F-1.885
sg15
I00
sbsS'mTOB_P0'
p303
g0
(g125
g2
Ntp304
Rp305
(dp306
g14
I00
sg24
I01
sg25
F-1.026
sg15
I00
sbsS'mTOB_P1'
p307
g0
(g125
g2
Ntp308
Rp309
(dp310
g14
I00
sg24
I01
sg25
F0.253
sg15
I00
sbsS'mTIB_P0'
p311
g0
(g125
g2
Ntp312
Rp313
(dp314
g14
I00
sg24
I01
sg25
F-0.742
sg15
I00
sbsg11
(lp315
g271
ag275
ag279
ag283
ag287
ag295
ag299
ag303
ag307
ag311
ag291
aS'mTID_P0'
p316
aS'mTID_P1'
p317
asg316
g0
(g125
g2
Ntp318
Rp319
(dp320
g14
I00
sg24
I01
sg25
F-1.427
sg15
I00
sbsg317
g0
(g125
g2
Ntp321
Rp322
(dp323
g14
I00
sg24
I01
sg25
F0.433
sg15
I00
sbsg15
I00
sbsg16
I4
sg266
g0
(g62
g2
Ntp324
Rp325
(dp326
g14
I00
sg24
I01
sg25
S'StripCPEfromTrackAngle'
p327
sg15
I00
sbsg265
g0
(g62
g2
Ntp328
Rp329
(dp330
g14
I00
sg24
I01
sg25
g327
sg15
I00
sbsg17
S'/cvmfs/cms.cern.ch/slc6_amd64_gcc530/cms/cmssw/CMSSW_9_2_10/python/RecoLocalTracker/SiStripRecHitConverter/StripCPEfromTrackAngle_cfi.py'
p331
sg19
g260
sg26
S'StripCPEESProducer'
p332
sbsS'_Process__aliases'
p333
(dp334
sS'eegeom'
p335
g0
(cFWCore.ParameterSet.Modules
ESSource
p336
g2
Ntp337
Rp338
(dp339
g11
(lp340
S'iovIsRunNotTime'
p341
aS'recordName'
p342
aS'firstValid'
p343
asg14
I00
sg15
I00
sg16
I6
sg342
g0
(g62
g2
Ntp344
Rp345
(dp346
g14
I00
sg24
I01
sg25
S'EcalMappingRcd'
p347
sg15
I00
sbsg17
S'/cvmfs/cms.cern.ch/slc6_amd64_gcc530/cms/cmssw/CMSSW_9_2_10/python/Geometry/EcalMapping/EcalMappingRecord_cfi.py'
p348
sg343
g0
(cFWCore.ParameterSet.Types
vuint32
p349
g34
(lp350
I1
atp351
Rp352
(dp353
g14
I00
sg24
I01
sg15
I00
sbsg19
g335
sg341
g0
(g20
g2
Ntp354
Rp355
(dp356
g14
I00
sg24
I01
sg25
I01
sg15
I00
sbsg26
S'EmptyESSource'
p357
sbsS'CastorGeometryFromDBEP'
p358
g0
(g7
g2
Ntp359
Rp360
(dp361
g11
(lp362
g13
asg14
I00
sg15
I00
sg16
I52
sg17
g18
sg19
g358
sg13
g0
(g20
g2
Ntp363
Rp364
(dp365
g14
I00
sg24
I01
sg25
I00
sg15
I00
sbsg26
g358
sbsS'CaloTopologyBuilder'
p366
g0
(g7
g2
Ntp367
Rp368
(dp369
g11
(lp370
sg14
I00
sg15
I00
sg16
I52
sg17
g18
sg19
g366
sg26
g366
sbsS'GlobalTrackingGeometryESProducer'
p371
g0
(g7
g2
Ntp372
Rp373
(dp374
g11
(lp375
sg14
I00
sg15
I00
sg16
I52
sg17
g18
sg19
g371
sg26
g371
sbsS'HFRecalParameterBlock'
p376
g0
(g57
g2
Ntp377
Rp378
(dp379
g14
I00
sg24
I01
sg15
I00
sS'HFdepthTwoParameterA'
p380
g0
(cFWCore.ParameterSet.Types
vdouble
p381
g34
(lp382
F0.002861
aF0.004168
aF0.0064
aF0.008388
aF0.011601
aF0.014425
aF0.018633
aF0.023232
aF0.028274
aF0.035447
aF0.051579
aF0.086593
atp383
Rp384
(dp385
g14
I00
sg24
I01
sg15
I00
sbsS'HFdepthOneParameterA'
p386
g0
(g381
g34
(lp387
F0.004123
aF0.00602
aF0.008201
aF0.010489
aF0.013379
aF0.016997
aF0.021464
aF0.027371
aF0.034195
aF0.044807
aF0.058939
aF0.125497
atp388
Rp389
(dp390
g14
I00
sg24
I01
sg15
I00
sbsS'HFdepthOneParameterB'
p391
g0
(g381
g34
(lp392
F-4e-06
aF-2e-06
aF0.0
aF4e-06
aF1.5e-05
aF2.6e-05
aF6.3e-05
aF8.4e-05
aF0.00016
aF0.000107
aF0.000425
aF0.000209
atp393
Rp394
(dp395
g14
I00
sg24
I01
sg15
I00
sbsS'HFdepthTwoParameterB'
p396
g0
(g381
g34
(lp397
F-2e-06
aF-0.0
aF-7e-06
aF-6e-06
aF-2e-06
aF1e-06
aF1.9e-05
aF3.1e-05
aF6.7e-05
aF1.2e-05
aF0.000157
aF-3e-06
atp398
Rp399
(dp400
g14
I00
sg24
I01
sg15
I00
sbsg11
(lp401
g386
ag391
ag396
ag380
asg19
g376
sbsS'trackerGeometryDB'
p402
g0
(g7
g2
Ntp403
Rp404
(dp405
g11
(lp406
g116
ag227
ag13
ag228
asg14
I00
sg116
g0
(g62
g2
Ntp407
Rp408
(dp409
g14
I00
sg24
I01
sg25
g66
sg15
I00
sbsg15
I00
sg228
g0
(g62
g2
Ntp410
Rp411
(dp412
g14
I00
sg24
I01
sg25
g66
sg15
I00
sbsg17
g18
sg16
I52
sg19
g402
sg227
g0
(g20
g2
Ntp413
Rp414
(dp415
g14
I00
sg24
I01
sg25
I00
sg15
I00
sbsg13
g0
(g20
g2
Ntp416
Rp417
(dp418
g14
I00
sg24
I01
sg25
I01
sg15
I00
sbsg26
S'TrackerDigiGeometryESModule'
p419
sbsS'stripCPEESProducer'
p420
g0
(g7
g2
Ntp421
Rp422
(dp423
g11
(lp424
g265
ag266
ag267
asg14
I00
sg15
I00
sg267
g0
(g57
g2
Ntp425
Rp426
(dp427
g14
I00
sg24
I01
sg15
I00
sg11
(lp428
sbsg16
I52
sg266
g0
(g62
g2
Ntp429
Rp430
(dp431
g14
I00
sg24
I01
sg25
S'stripCPE'
p432
sg15
I00
sbsg265
g0
(g62
g2
Ntp433
Rp434
(dp435
g14
I00
sg24
I01
sg25
S'SimpleStripCPE'
p436
sg15
I00
sbsg17
g18
sg19
g420
sg26
g332
sbsS'FedChannelDigis'
p437
g0
(cFWCore.ParameterSet.Modules
EDProducer
p438
g2
Ntp439
Rp440
(dp441
g11
(lp442
S'UseDaqRegister'
p443
aS'ProductLabel'
p444
aS'UnpackCommonModeValues'
p445
aS'AppendedBytes'
p446
aS'UseFedKey'
p447
aS'CreateDigis'
p448
aS'ErrorThreshold'
p449
aS'UnpackBadChannels'
p450
aS'MarkModulesOnMissingFeds'
p451
aS'TriggerFedId'
p452
aS'DoAllCorruptBufferChecks'
p453
aS'LegacyUnpacker'
p454
aS'DoAPVEmulatorCheck'
p455
asg14
I00
sg455
g0
(g20
g2
Ntp456
Rp457
(dp458
g14
I00
sg24
I01
sg25
I00
sg15
I00
sbsg15
I01
sg444
g0
(cFWCore.ParameterSet.Types
InputTag
p459
g2
Ntp460
Rp461
(dp462
g14
I00
sg24
I01
sg15
I00
sS'_InputTag__moduleLabel'
p463
S'rawDataCollector'
p464
sS'_InputTag__processName'
p465
g66
sS'_InputTag__productInstance'
p466
g66
sbsg17
S'/cvmfs/cms.cern.ch/slc6_amd64_gcc530/cms/cmssw/CMSSW_9_2_10/python/EventFilter/SiStripRawToDigi/FedChannelDigis_cfi.py'
p467
sg445
g0
(g20
g2
Ntp468
Rp469
(dp470
g14
I00
sg24
I01
sg25
I00
sg15
I00
sbsg446
g0
(cFWCore.ParameterSet.Types
int32
p471
g2
Ntp472
Rp473
(dp474
g14
I00
sg24
I01
sg25
I0
sg15
I00
sbsg447
g0
(g20
g2
Ntp475
Rp476
(dp477
g14
I00
sg24
I01
sg25
I01
sg15
I00
sbsg448
g0
(g20
g2
Ntp478
Rp479
(dp480
g14
I00
sg24
I00
sg25
I01
sg15
I00
sbsg454
g0
(g20
g2
Ntp481
Rp482
(dp483
g14
I00
sg24
I01
sg25
I00
sg15
I00
sbsg16
I17
sg26
S'SiStripRawToDigiModule'
p484
sg19
g437
sg453
g0
(g20
g2
Ntp485
Rp486
(dp487
g14
I00
sg24
I01
sg25
I00
sg15
I00
sbsg450
g0
(g20
g2
Ntp488
Rp489
(dp490
g14
I00
sg24
I01
sg25
I01
sg15
I00
sbsg451
g0
(g20
g2
Ntp491
Rp492
(dp493
g14
I00
sg24
I01
sg25
I01
sg15
I00
sbsg452
g0
(g471
g2
Ntp494
Rp495
(dp496
g14
I00
sg24
I01
sg25
I-1
sg15
I00
sbsg443
g0
(g20
g2
Ntp497
Rp498
(dp499
g14
I00
sg24
I01
sg25
I01
sg15
I00
sbsg449
g0
(cFWCore.ParameterSet.Types
uint32
p500
g2
Ntp501
Rp502
(dp503
g14
I00
sg24
I01
sg25
I7174
sg15
I00
sbsbsS'siStripLorentzAngleDepESProducer'
p504
g0
(g7
g2
Ntp505
Rp506
(dp507
g11
(lp508
g54
aS'LorentzAngleDeconvMode'
p509
aS'LorentzAnglePeakMode'
p510
asg14
I00
sg15
I00
sg16
I52
sg17
g18
sg54
g0
(g57
g2
Ntp511
Rp512
(dp513
g14
I00
sg24
I01
sg15
I00
sg61
g0
(g62
g2
Ntp514
Rp515
(dp516
g14
I00
sg24
I00
sg25
g66
sg15
I00
sbsg67
g0
(g62
g2
Ntp517
Rp518
(dp519
g14
I00
sg24
I01
sg25
g71
sg15
I00
sbsg11
(lp520
g67
ag61
asbsg19
g504
sg510
g0
(g57
g2
Ntp521
Rp522
(dp523
g14
I00
sg24
I01
sg15
I00
sg61
g0
(g62
g2
Ntp524
Rp525
(dp526
g14
I00
sg24
I00
sg25
g79
sg15
I00
sbsg67
g0
(g62
g2
Ntp527
Rp528
(dp529
g14
I00
sg24
I01
sg25
S'SiStripLorentzAngleRcd'
p530
sg15
I00
sbsg11
(lp531
g67
ag61
asbsg26
S'SiStripLorentzAngleDepESProducer'
p532
sg509
g0
(g57
g2
Ntp533
Rp534
(dp535
g14
I00
sg24
I01
sg15
I00
sg61
g0
(g62
g2
Ntp536
Rp537
(dp538
g14
I00
sg24
I00
sg25
g91
sg15
I00
sbsg67
g0
(g62
g2
Ntp539
Rp540
(dp541
g14
I00
sg24
I01
sg25
g530
sg15
I00
sbsg11
(lp542
g67
ag61
asbsbsS'hcalTopologyIdeal'
p543
g0
(g7
g2
Ntp544
Rp545
(dp546
g11
(lp547
S'MergePosition'
p548
aS'Exclude'
p549
ag116
asg14
I00
sg116
g0
(g62
g2
Ntp550
Rp551
(dp552
g14
I00
sg24
I01
sg25
g66
sg15
I00
sbsg15
I00
sg16
I52
sg548
g0
(g20
g2
Ntp553
Rp554
(dp555
g14
I00
sg24
I00
sg25
I01
sg15
I00
sbsg17
g18
sg19
g543
sg549
g0
(g62
g2
Ntp556
Rp557
(dp558
g14
I00
sg24
I00
sg25
g66
sg15
I00
sbsg26
S'HcalTopologyIdealEP'
p559
sbsS'_Process__psets'
p560
(dp561
S'maxEvents'
p562
g0
(g57
g2
Ntp563
Rp564
(dp565
g14
I00
sg24
I00
sg15
I00
sg11
(lp566
S'input'
p567
asg19
g562
sg567
g0
(g471
g2
Ntp568
Rp569
(dp570
g14
I00
sg24
I00
sg25
I500
sg15
I00
sbsbsg376
g378
ssS'hcal_db_producer'
p571
g0
(g7
g2
Ntp572
Rp573
(dp574
g11
(lp575
S'file'
p576
aS'dump'
p577
asg14
I00
sg15
I00
sg577
g0
(g33
g34
(lp578
g66
atp579
Rp580
(dp581
g14
I00
sg24
I00
sg15
I00
sg46
I1
sbsg16
I52
sg17
g18
sg576
g0
(g62
g2
Ntp582
Rp583
(dp584
g14
I00
sg24
I00
sg25
g66
sg15
I00
sbsg19
g571
sg26
S'HcalDbProducer'
p585
sbsS'p'
p586
g0
(cFWCore.ParameterSet.SequenceTypes
Path
p587
g2
Ntp588
Rp589
(dp590
g14
I00
sS'_seq'
p591
g0
(cFWCore.ParameterSet.SequenceTypes
_SequenceCollection
p592
g2
Ntp593
Rp594
(dp595
S'_collection'
p596
(lp597
g440
ag0
(cFWCore.ParameterSet.Modules
EDAnalyzer
p598
g2
Ntp599
Rp600
(dp601
g11
(lp602
S'SummaryInputModuleLabel'
p603
aS'CommissioningTask'
p604
aS'PedsFullNoiseParameters'
p605
aS'HistoUpdateFreq'
p606
aS'InputModuleLabel'
p607
aS'RootFileName'
p608
aS'View'
p609
asg14
I00
sg604
g0
(g62
g2
Ntp610
Rp611
(dp612
g14
I00
sg24
I00
sg25
S'PEDESTALS'
p613
sg15
I01
sbsg15
I01
sg605
g0
(g57
g2
Ntp614
Rp615
(dp616
g14
I00
sg24
I01
sS'FillNoiseProfile'
p617
g0
(g20
g2
Ntp618
Rp619
(dp620
g14
I00
sg24
I01
sg25
I00
sg15
I00
sbsS'NrEvForPeds'
p621
g0
(g471
g2
Ntp622
Rp623
(dp624
g14
I00
sg24
I01
sg25
I4000
sg15
I00
sbsg15
I00
sS'NrPosBinsNoiseHist'
p625
g0
(g471
g2
Ntp626
Rp627
(dp628
g14
I00
sg24
I01
sg25
I50
sg15
I00
sbsS'UseFloatPedestals'
p629
g0
(g20
g2
Ntp630
Rp631
(dp632
g14
I00
sg24
I01
sg25
I01
sg15
I00
sbsS'UseAverageCommonMode'
p633
g0
(g20
g2
Ntp634
Rp635
(dp636
g14
I00
sg24
I01
sg25
I01
sg15
I00
sbsg11
(lp637
g617
ag629
ag625
ag621
ag633
aS'NrEvToSkipAtStart'
p638
asg638
g0
(g471
g2
Ntp639
Rp640
(dp641
g14
I00
sg24
I01
sg25
I1000
sg15
I00
sbsbsg603
g0
(g62
g2
Ntp642
Rp643
(dp644
g14
I00
sg24
I01
sg25
g437
sg15
I00
sbsg606
g0
(g471
g2
Ntp645
Rp646
(dp647
g14
I00
sg24
I00
sg25
I500
sg15
I00
sbsg607
g0
(g62
g2
Ntp648
Rp649
(dp650
g14
I00
sg24
I01
sg25
g437
sg15
I00
sbsg608
g0
(g62
g2
Ntp651
Rp652
(dp653
g14
I00
sg24
I00
sg25
S'SiStripCommissioningSource'
p654
sg15
I00
sbsg16
I16
sg17
S'/cvmfs/cms.cern.ch/slc6_amd64_gcc530/cms/cmssw/CMSSW_9_2_10/python/DQM/SiStripCommissioningSources/CommissioningHistos_cfi.py'
p655
sg19
S'CommissioningHistos'
p656
sg26
g654
sg609
g0
(g62
g2
Ntp657
Rp658
(dp659
g14
I00
sg24
I00
sg25
S'Default'
p660
sg15
I00
sbsbasbsg19
g586
sg15
I00
sS'_tasks'
p661
g0
(cFWCore.ParameterSet.OrderedSet
OrderedSet
p662
g2
Ntp663
Rp664
(dp665
S'map'
p666
(dp667
sS'end'
p668
(lp669
Nag669
ag669
asbsbsS'_Process__essources'
p670
(dp671
S'es_hardcode'
p672
g0
(g336
g2
Ntp673
Rp674
(dp675
g14
I00
sg16
I155
sS'useHEUpgrade'
p676
g0
(g20
g2
Ntp677
Rp678
(dp679
g14
I00
sg24
I01
sg25
I00
sg15
I00
sbsS'HBRecalibration'
p680
g0
(g20
g2
Ntp681
Rp682
(dp683
g14
I00
sg24
I01
sg25
I00
sg15
I00
sbsS'useLayer0Weight'
p684
g0
(g20
g2
Ntp685
Rp686
(dp687
g14
I00
sg24
I01
sg25
I00
sg15
I00
sbsS'HEmeanenergies'
p688
g0
(cFWCore.ParameterSet.Types
FileInPath
p689
g2
Ntp690
Rp691
(dp692
g14
I00
sg24
I01
sg25
S'CalibCalorimetry/HcalPlugins/data/meanenergiesHE.txt'
p693
sg15
I00
sbsg376
g378
sS'heUpgrade'
p694
g0
(g57
g2
Ntp695
Rp696
(dp697
g14
I00
sg24
I01
sS'qieType'
p698
g0
(g471
g2
Ntp699
Rp700
(dp701
g14
I00
sg24
I01
sg25
I2
sg15
I00
sbsg15
I00
sS'pedestalWidth'
p702
g0
(g125
g2
Ntp703
Rp704
(dp705
g14
I00
sg24
I01
sg25
F1.5
sg15
I00
sbsS'recoShape'
p706
g0
(g471
g2
Ntp707
Rp708
(dp709
g14
I00
sg24
I01
sg25
I203
sg15
I00
sbsS'darkCurrent'
p710
g0
(g381
g34
(lp711
F0.01
aF0.015
atp712
Rp713
(dp714
g14
I00
sg24
I01
sg15
I00
sbsS'qieOffset'
p715
g0
(g381
g34
(lp716
F0.0
aF0.0
aF0.0
aF0.0
atp717
Rp718
(dp719
g14
I00
sg24
I01
sg15
I00
sbsS'qieSlope'
p720
g0
(g381
g34
(lp721
F0.05376
aF0.05376
aF0.05376
aF0.05376
atp722
Rp723
(dp724
g14
I00
sg24
I01
sg15
I00
sbsS'radiationDamage'
p725
g0
(g57
g2
Ntp726
Rp727
(dp728
g14
I00
sg24
I01
sS'temperatureNew'
p729
g0
(g125
g2
Ntp730
Rp731
(dp732
g14
I00
sg24
I01
sg25
I5
sg15
I00
sbsg15
I00
sS'depVsNeutrons'
p733
g0
(g381
g34
(lp734
F5.69e-11
aF7.9e-11
atp735
Rp736
(dp737
g14
I00
sg24
I01
sg15
I00
sbsS'temperatureBase'
p738
g0
(g125
g2
Ntp739
Rp740
(dp741
g14
I00
sg24
I01
sg25
I20
sg15
I00
sbsS'depVsTemp'
p742
g0
(g125
g2
Ntp743
Rp744
(dp745
g14
I00
sg24
I01
sg25
F0.0631
sg15
I00
sbsS'intlumiOffset'
p746
g0
(g125
g2
Ntp747
Rp748
(dp749
g14
I00
sg24
I01
sg25
I75
sg15
I00
sbsg11
(lp750
g729
ag733
ag738
ag742
ag746
aS'intlumiToNeutrons'
p751
asg751
g0
(g125
g2
Ntp752
Rp753
(dp754
g14
I00
sg24
I01
sg25
F29200000.0
sg15
I00
sbsbsS'doRadiationDamage'
p755
g0
(g20
g2
Ntp756
Rp757
(dp758
g14
I00
sg24
I01
sg25
I01
sg15
I00
sbsg11
(lp759
g698
ag702
ag706
aS'photoelectronsToAnalog'
p760
ag715
ag720
ag725
ag755
ag710
aS'pedestal'
p761
aS'mcShape'
p762
aS'gainWidth'
p763
aS'gain'
p764
asg760
g0
(g125
g2
Ntp765
Rp766
(dp767
g14
I00
sg24
I01
sg25
F44.0
sg15
I00
sbsg761
g0
(g125
g2
Ntp768
Rp769
(dp770
g14
I00
sg24
I01
sg25
F17.3
sg15
I00
sbsg762
g0
(g471
g2
Ntp771
Rp772
(dp773
g14
I00
sg24
I01
sg25
I203
sg15
I00
sbsg763
g0
(g381
g34
(lp774
I0
atp775
Rp776
(dp777
g14
I00
sg24
I01
sg15
I00
sbsg764
g0
(g381
g34
(lp778
F0.0004393673110720562
atp779
Rp780
(dp781
g14
I00
sg24
I01
sg15
I00
sbsbsg11
(lp782
S'toGet'
p783
ag680
ag684
ag688
ag376
ag694
aS'useHOUpgrade'
p784
aS'killHE'
p785
aS'useHBUpgrade'
p786
aS'hbUpgrade'
p787
aS'testHEPlan1'
p788
aS'iLumi'
p789
aS'testHFQIE10'
p790
aS'HBmeanenergies'
p791
ag676
aS'GainWidthsForTrigPrims'
p792
aS'HBreCalibCutoff'
p793
aS'HFRecalibration'
p794
aS'ho'
p795
aS'hb'
p796
aS'hf'
p797
aS'he'
p798
aS'HERecalibration'
p799
aS'useHFUpgrade'
p800
aS'HEreCalibCutoff'
p801
aS'SiPMCharacteristics'
p802
aS'hfUpgrade'
p803
asg17
S'/cvmfs/cms.cern.ch/slc6_amd64_gcc530/cms/cmssw/CMSSW_9_2_10/python/CalibCalorimetry/HcalPlugins/Hcal_Conditions_forGlobalTag_cff.py'
p804
sg784
g0
(g20
g2
Ntp805
Rp806
(dp807
g14
I00
sg24
I01
sg25
I01
sg15
I00
sbsg785
g0
(g20
g2
Ntp808
Rp809
(dp810
g14
I00
sg24
I01
sg25
I00
sg15
I00
sbsg786
g0
(g20
g2
Ntp811
Rp812
(dp813
g14
I00
sg24
I01
sg25
I00
sg15
I00
sbsg787
g0
(g57
g2
Ntp814
Rp815
(dp816
g14
I00
sg24
I01
sg698
g0
(g471
g2
Ntp817
Rp818
(dp819
g14
I00
sg24
I01
sg25
I2
sg15
I00
sbsg15
I00
sg702
g0
(g125
g2
Ntp820
Rp821
(dp822
g14
I00
sg24
I01
sg25
F1.5
sg15
I00
sbsg706
g0
(g471
g2
Ntp823
Rp824
(dp825
g14
I00
sg24
I01
sg25
I203
sg15
I00
sbsg710
g0
(g381
g34
(lp826
F0.01
aF0.015
atp827
Rp828
(dp829
g14
I00
sg24
I01
sg15
I00
sbsg715
g0
(g381
g34
(lp830
F0.0
aF0.0
aF0.0
aF0.0
atp831
Rp832
(dp833
g14
I00
sg24
I01
sg15
I00
sbsg720
g0
(g381
g34
(lp834
F0.05376
aF0.05376
aF0.05376
aF0.05376
atp835
Rp836
(dp837
g14
I00
sg24
I01
sg15
I00
sbsg725
g0
(g57
g2
Ntp838
Rp839
(dp840
g14
I00
sg24
I01
sg729
g0
(g125
g2
Ntp841
Rp842
(dp843
g14
I00
sg24
I01
sg25
I-5
sg15
I00
sbsg15
I00
sg733
g0
(g381
g34
(lp844
F5.69e-11
aF7.9e-11
atp845
Rp846
(dp847
g14
I00
sg24
I01
sg15
I00
sbsg738
g0
(g125
g2
Ntp848
Rp849
(dp850
g14
I00
sg24
I01
sg25
I20
sg15
I00
sbsg742
g0
(g125
g2
Ntp851
Rp852
(dp853
g14
I00
sg24
I01
sg25
F0.0631
sg15
I00
sbsg746
g0
(g125
g2
Ntp854
Rp855
(dp856
g14
I00
sg24
I01
sg25
I150
sg15
I00
sbsg11
(lp857
g729
ag733
ag738
ag742
ag746
ag751
asg751
g0
(g125
g2
Ntp858
Rp859
(dp860
g14
I00
sg24
I01
sg25
F367000000.0
sg15
I00
sbsbsg755
g0
(g20
g2
Ntp861
Rp862
(dp863
g14
I00
sg24
I01
sg25
I01
sg15
I00
sbsg11
(lp864
g698
ag702
ag706
ag760
ag715
ag720
ag725
ag755
ag710
ag761
ag762
ag763
ag764
asg760
g0
(g125
g2
Ntp865
Rp866
(dp867
g14
I00
sg24
I01
sg25
F44.0
sg15
I00
sbsg761
g0
(g125
g2
Ntp868
Rp869
(dp870
g14
I00
sg24
I01
sg25
F17.3
sg15
I00
sbsg762
g0
(g471
g2
Ntp871
Rp872
(dp873
g14
I00
sg24
I01
sg25
I203
sg15
I00
sbsg763
g0
(g381
g34
(lp874
I0
atp875
Rp876
(dp877
g14
I00
sg24
I01
sg15
I00
sbsg764
g0
(g381
g34
(lp878
F0.0004393673110720562
atp879
Rp880
(dp881
g14
I00
sg24
I01
sg15
I00
sbsbsg26
S'HcalHardcodeCalibrations'
p882
sg788
g0
(g20
g2
Ntp883
Rp884
(dp885
g14
I00
sg24
I01
sg25
I00
sg15
I00
sbsg789
g0
(g125
g2
Ntp886
Rp887
(dp888
g14
I00
sg24
I01
sg25
F-1.0
sg15
I00
sbsg790
g0
(g20
g2
Ntp889
Rp890
(dp891
g14
I00
sg24
I01
sg25
I00
sg15
I00
sbsg791
g0
(g689
g2
Ntp892
Rp893
(dp894
g14
I00
sg24
I01
sg25
S'CalibCalorimetry/HcalPlugins/data/meanenergiesHB.txt'
p895
sg15
I00
sbsg783
g0
(g33
g34
(lp896
S'GainWidths'
p897
atp898
Rp899
(dp900
g14
I00
sg24
I00
sg15
I00
sg46
I1
sbsg792
g0
(g20
g2
Ntp901
Rp902
(dp903
g14
I00
sg24
I01
sg25
I00
sg15
I00
sbsg793
g0
(g125
g2
Ntp904
Rp905
(dp906
g14
I00
sg24
I01
sg25
F20.0
sg15
I00
sbsg794
g0
(g20
g2
Ntp907
Rp908
(dp909
g14
I00
sg24
I01
sg25
I00
sg15
I00
sbsg795
g0
(g57
g2
Ntp910
Rp911
(dp912
g14
I00
sg24
I01
sg698
g0
(g471
g2
Ntp913
Rp914
(dp915
g14
I00
sg24
I01
sg25
I0
sg15
I00
sbsg15
I00
sg702
g0
(g125
g2
Ntp916
Rp917
(dp918
g14
I00
sg24
I01
sg25
F0.6285
sg15
I00
sbsg706
g0
(g471
g2
Ntp919
Rp920
(dp921
g14
I00
sg24
I01
sg25
I201
sg15
I00
sbsg710
g0
(g381
g34
(lp922
F0.0
atp923
Rp924
(dp925
g14
I00
sg24
I01
sg15
I00
sbsg715
g0
(g381
g34
(lp926
F-0.44
aF1.4
aF7.1
aF38.5
atp927
Rp928
(dp929
g14
I00
sg24
I01
sg15
I00
sbsg720
g0
(g381
g34
(lp930
F0.907
aF0.915
aF0.92
aF0.921
atp931
Rp932
(dp933
g14
I00
sg24
I01
sg15
I00
sbsg764
g0
(g381
g34
(lp934
F0.006
aF0.0087
atp935
Rp936
(dp937
g14
I00
sg24
I01
sg15
I00
sbsg755
g0
(g20
g2
Ntp938
Rp939
(dp940
g14
I00
sg24
I01
sg25
I00
sg15
I00
sbsg11
(lp941
g698
ag702
ag706
ag760
ag715
ag720
ag764
ag755
ag710
ag761
ag762
ag763
asg760
g0
(g125
g2
Ntp942
Rp943
(dp944
g14
I00
sg24
I01
sg25
F4.0
sg15
I00
sbsg761
g0
(g125
g2
Ntp945
Rp946
(dp947
g14
I00
sg24
I01
sg25
F12.06
sg15
I00
sbsg762
g0
(g471
g2
Ntp948
Rp949
(dp950
g14
I00
sg24
I01
sg25
I201
sg15
I00
sbsg763
g0
(g381
g34
(lp951
F0.0
aF0.0
atp952
Rp953
(dp954
g14
I00
sg24
I01
sg15
I00
sbsbsg796
g0
(g57
g2
Ntp955
Rp956
(dp957
g14
I00
sg24
I01
sg698
g0
(g471
g2
Ntp958
Rp959
(dp960
g14
I00
sg24
I01
sg25
I0
sg15
I00
sbsg15
I00
sg702
g0
(g125
g2
Ntp961
Rp962
(dp963
g14
I00
sg24
I01
sg25
F0.809
sg15
I00
sbsg706
g0
(g471
g2
Ntp964
Rp965
(dp966
g14
I00
sg24
I01
sg25
I105
sg15
I00
sbsg710
g0
(g381
g34
(lp967
F0.0
atp968
Rp969
(dp970
g14
I00
sg24
I01
sg15
I00
sbsg715
g0
(g381
g34
(lp971
F-0.49
aF1.8
aF7.2
aF37.9
atp972
Rp973
(dp974
g14
I00
sg24
I01
sg15
I00
sbsg720
g0
(g381
g34
(lp975
F0.912
aF0.917
aF0.922
aF0.923
atp976
Rp977
(dp978
g14
I00
sg24
I01
sg15
I00
sbsg764
g0
(g381
g34
(lp979
F0.19
atp980
Rp981
(dp982
g14
I00
sg24
I01
sg15
I00
sbsg755
g0
(g20
g2
Ntp983
Rp984
(dp985
g14
I00
sg24
I01
sg25
I00
sg15
I00
sbsg11
(lp986
g698
ag702
ag706
ag760
ag715
ag720
ag764
ag755
ag710
ag761
ag762
ag763
asg760
g0
(g125
g2
Ntp987
Rp988
(dp989
g14
I00
sg24
I01
sg25
F0.3305
sg15
I00
sbsg761
g0
(g125
g2
Ntp990
Rp991
(dp992
g14
I00
sg24
I01
sg25
F3.285
sg15
I00
sbsg762
g0
(g471
g2
Ntp993
Rp994
(dp995
g14
I00
sg24
I01
sg25
I125
sg15
I00
sbsg763
g0
(g381
g34
(lp996
F0.0
atp997
Rp998
(dp999
g14
I00
sg24
I01
sg15
I00
sbsbsg797
g0
(g57
g2
Ntp1000
Rp1001
(dp1002
g14
I00
sg24
I01
sg698
g0
(g471
g2
Ntp1003
Rp1004
(dp1005
g14
I00
sg24
I01
sg25
I0
sg15
I00
sbsg15
I00
sg702
g0
(g125
g2
Ntp1006
Rp1007
(dp1008
g14
I00
sg24
I01
sg25
F2.516
sg15
I00
sbsg706
g0
(g471
g2
Ntp1009
Rp1010
(dp1011
g14
I00
sg24
I01
sg25
I301
sg15
I00
sbsg710
g0
(g381
g34
(lp1012
F0.0
atp1013
Rp1014
(dp1015
g14
I00
sg24
I01
sg15
I00
sbsg715
g0
(g381
g34
(lp1016
F-0.87
aF1.4
aF7.8
aF-29.6
atp1017
Rp1018
(dp1019
g14
I00
sg24
I01
sg15
I00
sbsg720
g0
(g381
g34
(lp1020
F0.359
aF0.358
aF0.36
aF0.367
atp1021
Rp1022
(dp1023
g14
I00
sg24
I01
sg15
I00
sbsg764
g0
(g381
g34
(lp1024
F0.14
aF0.135
atp1025
Rp1026
(dp1027
g14
I00
sg24
I01
sg15
I00
sbsg755
g0
(g20
g2
Ntp1028
Rp1029
(dp1030
g14
I00
sg24
I01
sg25
I00
sg15
I00
sbsg11
(lp1031
g698
ag702
ag706
ag760
ag715
ag720
ag764
ag755
ag710
ag761
ag762
ag763
asg760
g0
(g125
g2
Ntp1032
Rp1033
(dp1034
g14
I00
sg24
I01
sg25
F0.0
sg15
I00
sbsg761
g0
(g125
g2
Ntp1035
Rp1036
(dp1037
g14
I00
sg24
I01
sg25
F9.354
sg15
I00
sbsg762
g0
(g471
g2
Ntp1038
Rp1039
(dp1040
g14
I00
sg24
I01
sg25
I301
sg15
I00
sbsg763
g0
(g381
g34
(lp1041
F0.0
aF0.0
atp1042
Rp1043
(dp1044
g14
I00
sg24
I01
sg15
I00
sbsbsg798
g0
(g57
g2
Ntp1045
Rp1046
(dp1047
g14
I00
sg24
I01
sg698
g0
(g471
g2
Ntp1048
Rp1049
(dp1050
g14
I00
sg24
I01
sg25
I0
sg15
I00
sbsg15
I00
sg702
g0
(g125
g2
Ntp1051
Rp1052
(dp1053
g14
I00
sg24
I01
sg25
F0.9698
sg15
I00
sbsg706
g0
(g471
g2
Ntp1054
Rp1055
(dp1056
g14
I00
sg24
I01
sg25
I105
sg15
I00
sbsg710
g0
(g381
g34
(lp1057
F0.0
atp1058
Rp1059
(dp1060
g14
I00
sg24
I01
sg15
I00
sbsg715
g0
(g381
g34
(lp1061
F-0.38
aF2.0
aF7.6
aF39.6
atp1062
Rp1063
(dp1064
g14
I00
sg24
I01
sg15
I00
sbsg720
g0
(g381
g34
(lp1065
F0.912
aF0.916
aF0.92
aF0.922
atp1066
Rp1067
(dp1068
g14
I00
sg24
I01
sg15
I00
sbsg764
g0
(g381
g34
(lp1069
F0.23
atp1070
Rp1071
(dp1072
g14
I00
sg24
I01
sg15
I00
sbsg755
g0
(g20
g2
Ntp1073
Rp1074
(dp1075
g14
I00
sg24
I01
sg25
I00
sg15
I00
sbsg11
(lp1076
g698
ag702
ag706
ag760
ag715
ag720
ag764
ag755
ag710
ag761
ag762
ag763
asg760
g0
(g125
g2
Ntp1077
Rp1078
(dp1079
g14
I00
sg24
I01
sg25
F0.3305
sg15
I00
sbsg761
g0
(g125
g2
Ntp1080
Rp1081
(dp1082
g14
I00
sg24
I01
sg25
F3.163
sg15
I00
sbsg762
g0
(g471
g2
Ntp1083
Rp1084
(dp1085
g14
I00
sg24
I01
sg25
I125
sg15
I00
sbsg763
g0
(g381
g34
(lp1086
I0
atp1087
Rp1088
(dp1089
g14
I00
sg24
I01
sg15
I00
sbsbsg15
I00
sg799
g0
(g20
g2
Ntp1090
Rp1091
(dp1092
g14
I00
sg24
I01
sg25
I00
sg15
I00
sbsg800
g0
(g20
g2
Ntp1093
Rp1094
(dp1095
g14
I00
sg24
I01
sg25
I00
sg15
I00
sbsg801
g0
(g125
g2
Ntp1096
Rp1097
(dp1098
g14
I00
sg24
I01
sg25
F20.0
sg15
I00
sbsg802
g0
(g135
g34
(lp1099
g0
(g57
g2
Ntp1100
Rp1101
(dp1102
g14
I00
sg24
I01
sg15
I00
sS'crosstalk'
p1103
g0
(g125
g2
Ntp1104
Rp1105
(dp1106
g14
I00
sg24
I01
sg25
F0.0
sg15
I00
sbsS'nonlin1'
p1107
g0
(g125
g2
Ntp1108
Rp1109
(dp1110
g14
I00
sg24
I01
sg25
F1.0
sg15
I00
sbsS'nonlin3'
p1111
g0
(g125
g2
Ntp1112
Rp1113
(dp1114
g14
I00
sg24
I01
sg25
F0.0
sg15
I00
sbsS'nonlin2'
p1115
g0
(g125
g2
Ntp1116
Rp1117
(dp1118
g14
I00
sg24
I01
sg25
F0.0
sg15
I00
sbsg11
(lp1119
g1107
ag1111
ag1115
aS'pixels'
p1120
ag1103
asg1120
g0
(g471
g2
Ntp1121
Rp1122
(dp1123
g14
I00
sg24
I01
sg25
I36000
sg15
I00
sbsbag0
(g57
g2
Ntp1124
Rp1125
(dp1126
g14
I00
sg24
I01
sg15
I00
sg1103
g0
(g125
g2
Ntp1127
Rp1128
(dp1129
g14
I00
sg24
I01
sg25
F0.0
sg15
I00
sbsg1107
g0
(g125
g2
Ntp1130
Rp1131
(dp1132
g14
I00
sg24
I01
sg25
F1.0
sg15
I00
sbsg1111
g0
(g125
g2
Ntp1133
Rp1134
(dp1135
g14
I00
sg24
I01
sg25
F0.0
sg15
I00
sbsg1115
g0
(g125
g2
Ntp1136
Rp1137
(dp1138
g14
I00
sg24
I01
sg25
F0.0
sg15
I00
sbsg11
(lp1139
g1107
ag1111
ag1115
ag1120
ag1103
asg1120
g0
(g471
g2
Ntp1140
Rp1141
(dp1142
g14
I00
sg24
I01
sg25
I2500
sg15
I00
sbsbag0
(g57
g2
Ntp1143
Rp1144
(dp1145
g14
I00
sg24
I01
sg15
I00
sg1103
g0
(g125
g2
Ntp1146
Rp1147
(dp1148
g14
I00
sg24
I01
sg25
F0.17
sg15
I00
sbsg1107
g0
(g125
g2
Ntp1149
Rp1150
(dp1151
g14
I00
sg24
I01
sg25
F1.00985
sg15
I00
sbsg1111
g0
(g125
g2
Ntp1152
Rp1153
(dp1154
g14
I00
sg24
I01
sg25
F2.86282e-10
sg15
I00
sbsg1115
g0
(g125
g2
Ntp1155
Rp1156
(dp1157
g14
I00
sg24
I01
sg25
F7.84089e-06
sg15
I00
sbsg11
(lp1158
g1107
ag1111
ag1115
ag1120
ag1103
asg1120
g0
(g471
g2
Ntp1159
Rp1160
(dp1161
g14
I00
sg24
I01
sg25
I27370
sg15
I00
sbsbag0
(g57
g2
Ntp1162
Rp1163
(dp1164
g14
I00
sg24
I01
sg15
I00
sg1103
g0
(g125
g2
Ntp1165
Rp1166
(dp1167
g14
I00
sg24
I01
sg25
F0.196
sg15
I00
sbsg1107
g0
(g125
g2
Ntp1168
Rp1169
(dp1170
g14
I00
sg24
I01
sg25
F1.00546
sg15
I00
sbsg1111
g0
(g125
g2
Ntp1171
Rp1172
(dp1173
g14
I00
sg24
I01
sg25
F1.27011e-10
sg15
I00
sbsg1115
g0
(g125
g2
Ntp1174
Rp1175
(dp1176
g14
I00
sg24
I01
sg25
F6.40239e-06
sg15
I00
sbsg11
(lp1177
g1107
ag1111
ag1115
ag1120
ag1103
asg1120
g0
(g471
g2
Ntp1178
Rp1179
(dp1180
g14
I00
sg24
I01
sg25
I38018
sg15
I00
sbsbag0
(g57
g2
Ntp1181
Rp1182
(dp1183
g14
I00
sg24
I01
sg15
I00
sg1103
g0
(g125
g2
Ntp1184
Rp1185
(dp1186
g14
I00
sg24
I01
sg25
F0.17
sg15
I00
sbsg1107
g0
(g125
g2
Ntp1187
Rp1188
(dp1189
g14
I00
sg24
I01
sg25
F1.00985
sg15
I00
sbsg1111
g0
(g125
g2
Ntp1190
Rp1191
(dp1192
g14
I00
sg24
I01
sg25
F2.86282e-10
sg15
I00
sbsg1115
g0
(g125
g2
Ntp1193
Rp1194
(dp1195
g14
I00
sg24
I01
sg25
F7.84089e-06
sg15
I00
sbsg11
(lp1196
g1107
ag1111
ag1115
ag1120
ag1103
asg1120
g0
(g471
g2
Ntp1197
Rp1198
(dp1199
g14
I00
sg24
I01
sg25
I27370
sg15
I00
sbsbag0
(g57
g2
Ntp1200
Rp1201
(dp1202
g14
I00
sg24
I01
sg15
I00
sg1103
g0
(g125
g2
Ntp1203
Rp1204
(dp1205
g14
I00
sg24
I01
sg25
F0.196
sg15
I00
sbsg1107
g0
(g125
g2
Ntp1206
Rp1207
(dp1208
g14
I00
sg24
I01
sg25
F1.00546
sg15
I00
sbsg1111
g0
(g125
g2
Ntp1209
Rp1210
(dp1211
g14
I00
sg24
I01
sg25
F1.27011e-10
sg15
I00
sbsg1115
g0
(g125
g2
Ntp1212
Rp1213
(dp1214
g14
I00
sg24
I01
sg25
F6.40239e-06
sg15
I00
sbsg11
(lp1215
g1107
ag1111
ag1115
ag1120
ag1103
asg1120
g0
(g471
g2
Ntp1216
Rp1217
(dp1218
g14
I00
sg24
I01
sg25
I38018
sg15
I00
sbsbag0
(g57
g2
Ntp1219
Rp1220
(dp1221
g14
I00
sg24
I01
sg15
I00
sg1103
g0
(g125
g2
Ntp1222
Rp1223
(dp1224
g14
I00
sg24
I01
sg25
F0.0
sg15
I00
sbsg1107
g0
(g125
g2
Ntp1225
Rp1226
(dp1227
g14
I00
sg24
I01
sg25
F1.0
sg15
I00
sbsg1111
g0
(g125
g2
Ntp1228
Rp1229
(dp1230
g14
I00
sg24
I01
sg25
F0.0
sg15
I00
sbsg1115
g0
(g125
g2
Ntp1231
Rp1232
(dp1233
g14
I00
sg24
I01
sg25
F0.0
sg15
I00
sbsg11
(lp1234
g1107
ag1111
ag1115
ag1120
ag1103
asg1120
g0
(g471
g2
Ntp1235
Rp1236
(dp1237
g14
I00
sg24
I01
sg25
I0
sg15
I00
sbsbatp1238
Rp1239
(dp1240
g14
I00
sg24
I01
sg15
I00
sg46
I1
sbsg19
g672
sg803
g0
(g57
g2
Ntp1241
Rp1242
(dp1243
g14
I00
sg24
I01
sg698
g0
(g471
g2
Ntp1244
Rp1245
(dp1246
g14
I00
sg24
I01
sg25
I1
sg15
I00
sbsg15
I00
sg702
g0
(g125
g2
Ntp1247
Rp1248
(dp1249
g14
I00
sg24
I01
sg25
F3.33
sg15
I00
sbsg706
g0
(g471
g2
Ntp1250
Rp1251
(dp1252
g14
I00
sg24
I01
sg25
I301
sg15
I00
sbsg710
g0
(g381
g34
(lp1253
F0.0
atp1254
Rp1255
(dp1256
g14
I00
sg24
I01
sg15
I00
sbsg715
g0
(g381
g34
(lp1257
F0.0697
aF-0.7405
aF12.38
aF-671.9
atp1258
Rp1259
(dp1260
g14
I00
sg24
I01
sg15
I00
sbsg720
g0
(g381
g34
(lp1261
F0.297
aF0.298
aF0.298
aF0.313
atp1262
Rp1263
(dp1264
g14
I00
sg24
I01
sg15
I00
sbsg764
g0
(g381
g34
(lp1265
F0.14
aF0.135
atp1266
Rp1267
(dp1268
g14
I00
sg24
I01
sg15
I00
sbsg755
g0
(g20
g2
Ntp1269
Rp1270
(dp1271
g14
I00
sg24
I01
sg25
I00
sg15
I00
sbsg11
(lp1272
g698
ag702
ag706
ag760
ag715
ag720
ag764
ag755
ag710
ag761
ag762
ag763
asg760
g0
(g125
g2
Ntp1273
Rp1274
(dp1275
g14
I00
sg24
I01
sg25
F0.0
sg15
I00
sbsg761
g0
(g125
g2
Ntp1276
Rp1277
(dp1278
g14
I00
sg24
I01
sg25
F13.33
sg15
I00
sbsg762
g0
(g471
g2
Ntp1279
Rp1280
(dp1281
g14
I00
sg24
I01
sg25
I301
sg15
I00
sbsg763
g0
(g381
g34
(lp1282
F0.0
aF0.0
atp1283
Rp1284
(dp1285
g14
I00
sg24
I01
sg15
I00
sbsbsbsg335
g338
sS'GlobalTag'
p1286
g0
(g336
g2
Ntp1287
Rp1288
(dp1289
g11
(lp1290
S'DBParameters'
p1291
aS'connect'
p1292
aS'globaltag'
p1293
aS'RefreshEachRun'
p1294
aS'pfnPrefix'
p1295
aS'snapshotTime'
p1296
ag783
aS'pfnPostfix'
p1297
aS'RefreshAlways'
p1298
aS'ReconnectEachRun'
p1299
aS'RefreshOpenIOVs'
p1300
aS'DumpStat'
p1301
asg14
I00
sg17
S'/cvmfs/cms.cern.ch/slc6_amd64_gcc530/cms/cmssw/CMSSW_9_2_10/python/CondCore/ESSources/CondDBESSource_cfi.py'
p1302
sg15
I01
sg1293
g0
(g62
g2
Ntp1303
Rp1304
(dp1305
g14
I00
sg24
I01
sg25
S'92X_dataRun2_v5'
p1306
sg15
I00
sbsg1294
g0
(g20
g2
Ntp1307
Rp1308
(dp1309
g14
I00
sg24
I00
sg25
I00
sg15
I00
sbsg1295
g0
(g62
g2
Ntp1310
Rp1311
(dp1312
g14
I00
sg24
I00
sg25
g66
sg15
I00
sbsg1296
g0
(g62
g2
Ntp1313
Rp1314
(dp1315
g14
I00
sg24
I01
sg25
g66
sg15
I00
sbsg783
g0
(g135
g34
(lp1316
tp1317
Rp1318
(dp1319
g14
I00
sg24
I01
sg15
I00
sg46
I1
sbsg1297
g0
(g62
g2
Ntp1320
Rp1321
(dp1322
g14
I00
sg24
I00
sg25
g66
sg15
I00
sbsg1291
g0
(g57
g2
Ntp1323
Rp1324
(dp1325
g14
I00
sg24
I01
sS'authenticationPath'
p1326
g0
(g62
g2
Ntp1327
Rp1328
(dp1329
g14
I00
sg24
I00
sg25
g66
sg15
I00
sbsg15
I00
sS'messageLevel'
p1330
g0
(g471
g2
Ntp1331
Rp1332
(dp1333
g14
I00
sg24
I00
sg25
I0
sg15
I00
sbsg11
(lp1334
g1330
aS'security'
p1335
aS'authenticationSystem'
p1336
ag1326
asg1335
g0
(g62
g2
Ntp1337
Rp1338
(dp1339
g14
I00
sg24
I00
sg25
g66
sg15
I00
sbsg1336
g0
(g471
g2
Ntp1340
Rp1341
(dp1342
g14
I00
sg24
I00
sg25
I0
sg15
I00
sbsbsg1298
g0
(g20
g2
Ntp1343
Rp1344
(dp1345
g14
I00
sg24
I00
sg25
I00
sg15
I00
sbsg16
I19
sg1292
g0
(g62
g2
Ntp1346
Rp1347
(dp1348
g14
I00
sg24
I01
sg25
S'frontier://FrontierProd/CMS_CONDITIONS'
p1349
sg15
I00
sbsg1299
g0
(g20
g2
Ntp1350
Rp1351
(dp1352
g14
I00
sg24
I00
sg25
I00
sg15
I00
sbsg19
g1286
sg1300
g0
(g20
g2
Ntp1353
Rp1354
(dp1355
g14
I00
sg24
I00
sg25
I00
sg15
I00
sbsg1301
g0
(g20
g2
Ntp1356
Rp1357
(dp1358
g14
I00
sg24
I00
sg25
I00
sg15
I00
sbsg26
S'PoolDBESSource'
p1359
sbssS'HcalAlignmentEP'
p1360
g0
(g7
g2
Ntp1361
Rp1362
(dp1363
g11
(lp1364
sg14
I00
sg15
I00
sg16
I52
sg17
g18
sg19
g1360
sg26
g1360
sbsS'EcalPreshowerGeometryFromDBEP'
p1365
g0
(g7
g2
Ntp1366
Rp1367
(dp1368
g11
(lp1369
g13
asg14
I00
sg15
I01
sg16
I52
sg17
g18
sg19
g1365
sg13
g0
(g20
g2
Ntp1370
Rp1371
(dp1372
g14
I00
sg24
I01
sg25
I01
sg15
I01
sbsg26
g1365
sbsS'CastorDbProducer'
p1373
g0
(g7
g2
Ntp1374
Rp1375
(dp1376
g11
(lp1377
g116
asg14
I00
sg116
g0
(g62
g2
Ntp1378
Rp1379
(dp1380
g14
I00
sg24
I01
sg25
g66
sg15
I00
sbsg15
I00
sg16
I52
sg17
g18
sg19
g1373
sg26
g1373
sbsS'hcalDDDRecConstants'
p1381
g0
(g7
g2
Ntp1382
Rp1383
(dp1384
g11
(lp1385
g116
asg14
I00
sg116
g0
(g62
g2
Ntp1386
Rp1387
(dp1388
g14
I00
sg24
I01
sg25
g66
sg15
I00
sbsg15
I00
sg16
I52
sg17
g18
sg19
g1381
sg26
S'HcalDDDRecConstantsESModule'
p1389
sbsg562
g564
sS'source'
p1390
g244
sS'CSCGeometryESModule'
p1391
g0
(g7
g2
Ntp1392
Rp1393
(dp1394
g11
(lp1395
g116
aS'useDDD'
p1396
aS'debugV'
p1397
aS'useGangedStripsInME1a'
p1398
ag228
aS'useOnlyWiresInME1a'
p1399
aS'useRealWireGeometry'
p1400
aS'useCentreTIOffsets'
p1401
ag13
asg14
I00
sg116
g0
(g62
g2
Ntp1402
Rp1403
(dp1404
g14
I00
sg24
I01
sg25
g66
sg15
I00
sbsg15
I00
sg1397
g0
(g20
g2
Ntp1405
Rp1406
(dp1407
g14
I00
sg24
I00
sg25
I00
sg15
I00
sbsg17
g18
sg1398
g0
(g20
g2
Ntp1408
Rp1409
(dp1410
g14
I00
sg24
I01
sg25
I01
sg15
I00
sbsg228
g0
(g62
g2
Ntp1411
Rp1412
(dp1413
g14
I00
sg24
I01
sg25
g66
sg15
I00
sbsg1399
g0
(g20
g2
Ntp1414
Rp1415
(dp1416
g14
I00
sg24
I01
sg25
I00
sg15
I00
sbsg1396
g0
(g20
g2
Ntp1417
Rp1418
(dp1419
g14
I00
sg24
I01
sg25
I00
sg15
I00
sbsg16
I52
sg1401
g0
(g20
g2
Ntp1420
Rp1421
(dp1422
g14
I00
sg24
I01
sg25
I00
sg15
I00
sbsg19
g1391
sg1400
g0
(g20
g2
Ntp1423
Rp1424
(dp1425
g14
I00
sg24
I01
sg25
I01
sg15
I00
sbsg13
g0
(g20
g2
Ntp1426
Rp1427
(dp1428
g14
I00
sg24
I01
sg25
I01
sg15
I00
sbsg26
g1391
sbsS'MuonDetLayerGeometryESProducer'
p1429
g0
(g7
g2
Ntp1430
Rp1431
(dp1432
g11
(lp1433
sg14
I00
sg15
I00
sg16
I52
sg17
g18
sg19
g1429
sg26
g1429
sbsS'EcalBarrelGeometryFromDBEP'
p1434
g0
(g7
g2
Ntp1435
Rp1436
(dp1437
g11
(lp1438
g13
asg14
I00
sg15
I01
sg16
I52
sg17
g18
sg19
g1434
sg13
g0
(g20
g2
Ntp1439
Rp1440
(dp1441
g14
I00
sg24
I01
sg25
I01
sg15
I01
sbsg26
g1434
sbsS'_Process__vpsets'
p1442
(dp1443
sS'EcalElectronicsMappingBuilder'
p1444
g0
(g7
g2
Ntp1445
Rp1446
(dp1447
g11
(lp1448
sg14
I00
sg15
I00
sg16
I52
sg17
g18
sg19
g1444
sg26
g1444
sbsS'_Process__name'
p1449
S'Source'
p1450
sg656
g600
sS'sistripconn'
p1451
g0
(g7
g2
Ntp1452
Rp1453
(dp1454
g11
(lp1455
sg14
I00
sg15
I00
sg16
I52
sg17
g18
sg19
g1451
sg26
S'SiStripConnectivity'
p1456
sbsg672
g674
sS'EcalTrigTowerConstituentsMapBuilder'
p1457
g0
(g7
g2
Ntp1458
Rp1459
(dp1460
g11
(lp1461
S'MapFile'
p1462
asg14
I00
sg15
I00
sg1462
g0
(g62
g2
Ntp1463
Rp1464
(dp1465
g14
I00
sg24
I00
sg25
S'Geometry/EcalMapping/data/EndCap_TTMap.txt'
p1466
sg15
I00
sbsg17
g18
sg16
I52
sg19
g1457
sg26
g1457
sbsS'trackerNumberingGeometryDB'
p1467
g0
(g7
g2
Ntp1468
Rp1469
(dp1470
g11
(lp1471
g116
ag227
asg14
I00
sg116
g0
(g62
g2
Ntp1472
Rp1473
(dp1474
g14
I00
sg24
I01
sg25
g66
sg15
I00
sbsg15
I00
sg16
I52
sg17
g18
sg19
g1467
sg227
g0
(g20
g2
Ntp1475
Rp1476
(dp1477
g14
I00
sg24
I01
sg25
I00
sg15
I00
sbsg26
S'TrackerGeometricDetESModule'
p1478
sbsS'idealForDigiCSCGeometry'
p1479
g0
(g7
g2
Ntp1480
Rp1481
(dp1482
g11
(lp1483
g116
ag1396
ag1397
ag1398
ag228
ag1399
ag1400
ag1401
ag13
asg14
I00
sg116
g0
(g62
g2
Ntp1484
Rp1485
(dp1486
g14
I00
sg24
I01
sg25
S'idealForDigi'
p1487
sg15
I01
sbsg15
I01
sg1397
g0
(g20
g2
Ntp1488
Rp1489
(dp1490
g14
I00
sg24
I00
sg25
I00
sg15
I00
sbsg17
S'/cvmfs/cms.cern.ch/slc6_amd64_gcc530/cms/cmssw/CMSSW_9_2_10/python/Geometry/CSCGeometryBuilder/idealForDigiCscGeometryDB_cff.py'
p1491
sg1398
g0
(g20
g2
Ntp1492
Rp1493
(dp1494
g14
I00
sg24
I01
sg25
I01
sg15
I00
sbsg228
g0
(g62
g2
Ntp1495
Rp1496
(dp1497
g14
I00
sg24
I01
sg25
S'fakeForIdeal'
p1498
sg15
I01
sbsg1399
g0
(g20
g2
Ntp1499
Rp1500
(dp1501
g14
I00
sg24
I01
sg25
I00
sg15
I00
sbsg1396
g0
(g20
g2
Ntp1502
Rp1503
(dp1504
g14
I00
sg24
I01
sg25
I00
sg15
I00
sbsg16
I8
sg1401
g0
(g20
g2
Ntp1505
Rp1506
(dp1507
g14
I00
sg24
I01
sg25
I00
sg15
I00
sbsg19
g1479
sg1400
g0
(g20
g2
Ntp1508
Rp1509
(dp1510
g14
I00
sg24
I01
sg25
I01
sg15
I00
sbsg13
g0
(g20
g2
Ntp1511
Rp1512
(dp1513
g14
I00
sg24
I01
sg25
I00
sg15
I01
sbsg26
g1391
sbsS'CaloTowerGeometryFromDBEP'
p1514
g0
(g7
g2
Ntp1515
Rp1516
(dp1517
g11
(lp1518
g13
asg14
I00
sg15
I00
sg16
I52
sg17
g18
sg19
g1514
sg13
g0
(g20
g2
Ntp1519
Rp1520
(dp1521
g14
I00
sg24
I01
sg25
I00
sg15
I00
sbsg26
g1514
sbsS'_Process__subProcesses'
p1522
(lp1523
sS'_cloneToObjectDict'
p1524
(dp1525
I139901209064272
g1469
sI139901209064720
g404
sI139901208683472
g378
sI139901209067280
g1362
sI139901208348176
g589
sI139901208573072
g0
(g7
g2
Ntp1526
Rp1527
(dp1528
g11
(lp1529
g13
asg14
I00
sg15
I00
sg16
I52
sg17
g18
sg19
S'ZdcGeometryFromDBEP'
p1530
sg13
g0
(g20
g2
Ntp1531
Rp1532
(dp1533
g14
I00
sg24
I01
sg25
I00
sg15
I00
sbsg26
g1530
sbsI139901209065680
g368
sI139901208765648
g674
sI139901208346832
g440
sI139901208630544
g0
(g7
g2
Ntp1534
Rp1535
(dp1536
g11
(lp1537
g116
ag227
ag13
ag228
asg14
I00
sg116
g0
(g62
g2
Ntp1538
Rp1539
(dp1540
g14
I00
sg24
I01
sg25
g1487
sg15
I01
sbsg15
I01
sg228
g0
(g62
g2
Ntp1541
Rp1542
(dp1543
g14
I00
sg24
I01
sg25
g1498
sg15
I01
sbsg17
S'/cvmfs/cms.cern.ch/slc6_amd64_gcc530/cms/cmssw/CMSSW_9_2_10/python/Geometry/DTGeometryBuilder/idealForDigiDtGeometryDB_cff.py'
p1544
sg16
I8
sg19
S'idealForDigiDTGeometry'
p1545
sg227
g0
(g20
g2
Ntp1546
Rp1547
(dp1548
g14
I00
sg24
I01
sg25
I00
sg15
I00
sbsg13
g0
(g20
g2
Ntp1549
Rp1550
(dp1551
g14
I00
sg24
I01
sg25
I00
sg15
I01
sbsg26
g222
sbsI139901209066128
g29
sI139901208572368
g545
sI139901208802704
g262
sI139901209064912
g373
sI139901209064976
g0
(g7
g2
Ntp1552
Rp1553
(dp1554
g11
(lp1555
sg14
I00
sg15
I00
sg16
I52
sg17
g18
sg19
S'TrackerRecoGeometryESProducer'
p1556
sg26
g1556
sbsI139901208632656
g1288
sI139901209065104
g0
(g7
g2
Ntp1557
Rp1558
(dp1559
g11
(lp1560
g116
asg14
I00
sg116
g0
(g62
g2
Ntp1561
Rp1562
(dp1563
g14
I00
sg24
I01
sg25
g66
sg15
I00
sbsg15
I00
sg16
I52
sg17
g18
sg19
S'trackerTopology'
p1564
sg26
S'TrackerTopologyEP'
p1565
sbsI139901208767824
g0
(g7
g2
Ntp1566
Rp1567
(dp1568
g11
(lp1569
S'printDebug'
p1570
ag116
aS'APVGain'
p1571
aS'AutomaticNormalization'
p1572
asg14
I00
sg116
g0
(g62
g2
Ntp1573
Rp1574
(dp1575
g14
I00
sg24
I01
sg25
g66
sg15
I00
sbsg15
I00
sg1572
g0
(g20
g2
Ntp1576
Rp1577
(dp1578
g14
I00
sg24
I01
sg25
I00
sg15
I00
sbsg16
I52
sg1570
g0
(g20
g2
Ntp1579
Rp1580
(dp1581
g14
I00
sg24
I00
sg25
I00
sg15
I00
sbsg17
g18
sg1571
g0
(g135
g34
(lp1582
g0
(g57
g2
Ntp1583
Rp1584
(dp1585
g14
I00
sg24
I01
sg15
I00
sS'Label'
p1586
g0
(g62
g2
Ntp1587
Rp1588
(dp1589
g14
I00
sg24
I00
sg25
g66
sg15
I00
sbsS'Record'
p1590
g0
(g62
g2
Ntp1591
Rp1592
(dp1593
g14
I00
sg24
I01
sg25
S'SiStripApvGainRcd'
p1594
sg15
I00
sbsS'NormalizationFactor'
p1595
g0
(g125
g2
Ntp1596
Rp1597
(dp1598
g14
I00
sg24
I00
sg25
F1.0
sg15
I00
sbsg11
(lp1599
g1590
ag1595
ag1586
asbag0
(g57
g2
Ntp1600
Rp1601
(dp1602
g14
I00
sg24
I01
sg15
I00
sg1586
g0
(g62
g2
Ntp1603
Rp1604
(dp1605
g14
I00
sg24
I00
sg25
g66
sg15
I00
sbsg1590
g0
(g62
g2
Ntp1606
Rp1607
(dp1608
g14
I00
sg24
I01
sg25
S'SiStripApvGain2Rcd'
p1609
sg15
I00
sbsg1595
g0
(g125
g2
Ntp1610
Rp1611
(dp1612
g14
I00
sg24
I00
sg25
F1.0
sg15
I00
sbsg11
(lp1613
g1590
ag1595
ag1586
asbatp1614
Rp1615
(dp1616
g14
I00
sg24
I01
sg15
I00
sg46
I1
sbsg19
S'siStripGainESProducer'
p1617
sg26
S'SiStripGainESProducer'
p1618
sbsI139901208573712
g1459
sI139901208766224
g1375
sI139901208802576
g422
sI139901208574160
g1446
sI139901208310416
g113
sI139901208573392
g360
sI139901208574416
g338
sI139901208931664
g1393
sI139901208804176
g0
(g7
g2
Ntp1619
Rp1620
(dp1621
g11
(lp1622
sg14
I00
sg15
I00
sg16
I52
sg17
g18
sg19
Nsg26
g1456
sbsI139901208802256
g51
sI139901208312720
g1453
sI139901208574928
g0
(g7
g2
Ntp1623
Rp1624
(dp1625
g11
(lp1626
g116
asg14
I00
sg116
g0
(g62
g2
Ntp1627
Rp1628
(dp1629
g14
I00
sg24
I01
sg25
g66
sg15
I00
sbsg15
I00
sg16
I52
sg17
g18
sg19
S'hcalDDDSimConstants'
p1630
sg26
S'HcalDDDSimConstantsESModule'
p1631
sbsI139901209066512
g0
(g7
g2
Ntp1632
Rp1633
(dp1634
g11
(lp1635
g13
asg14
I00
sg15
I01
sg16
I52
sg17
g18
sg19
S'EcalEndcapGeometryFromDBEP'
p1636
sg13
g0
(g20
g2
Ntp1637
Rp1638
(dp1639
g14
I00
sg24
I01
sg25
I01
sg15
I01
sbsg26
g1636
sbsI139901208312912
g564
sI139901208629712
g1481
sI139901208348112
g600
sI139901209066768
g1436
sI139901209065296
g1431
sI139901208801552
g506
sI139901208575440
g0
(g7
g2
Ntp1640
Rp1641
(dp1642
g11
(lp1643
g116
ag227
ag13
ag228
asg14
I00
sg116
g0
(g62
g2
Ntp1644
Rp1645
(dp1646
g14
I00
sg24
I01
sg25
g1487
sg15
I01
sbsg15
I01
sg228
g0
(g62
g2
Ntp1647
Rp1648
(dp1649
g14
I00
sg24
I01
sg25
g1498
sg15
I01
sbsg17
S'/cvmfs/cms.cern.ch/slc6_amd64_gcc530/cms/cmssw/CMSSW_9_2_10/python/Geometry/TrackerGeometryBuilder/idealForDigiTrackerGeometryDB_cff.py'
p1650
sg16
I8
sg19
S'idealForDigiTrackerGeometry'
p1651
sg227
g0
(g20
g2
Ntp1652
Rp1653
(dp1654
g14
I00
sg24
I01
sg25
I00
sg15
I00
sbsg13
g0
(g20
g2
Ntp1655
Rp1656
(dp1657
g14
I00
sg24
I01
sg25
I00
sg15
I01
sbsg26
g419
sbsI139901208575248
g1383
sI139901208683536
g573
sI139901208805008
g0
(g7
g2
Ntp1658
Rp1659
(dp1660
g11
(lp1661
g121
asg14
I00
sg15
I01
sg16
I52
sg17
g18
sg121
g0
(g135
g34
(lp1662
g0
(g57
g2
Ntp1663
Rp1664
(dp1665
g14
I00
sg24
I01
sg15
I00
sg67
g0
(g62
g2
Ntp1666
Rp1667
(dp1668
g14
I00
sg24
I01
sg25
S'SiPixelQualityFromDbRcd'
p1669
sg15
I00
sbsg144
g0
(g62
g2
Ntp1670
Rp1671
(dp1672
g14
I00
sg24
I01
sg25
g66
sg15
I00
sbsg11
(lp1673
g67
ag144
asbag0
(g57
g2
Ntp1674
Rp1675
(dp1676
g14
I00
sg24
I01
sg15
I00
sg67
g0
(g62
g2
Ntp1677
Rp1678
(dp1679
g14
I00
sg24
I01
sg25
S'SiPixelDetVOffRcd'
p1680
sg15
I00
sbsg144
g0
(g62
g2
Ntp1681
Rp1682
(dp1683
g14
I00
sg24
I01
sg25
g66
sg15
I00
sbsg11
(lp1684
g67
ag144
asbatp1685
Rp1686
(dp1687
g14
I00
sg24
I01
sg15
I00
sg46
I1
sbsg19
S'siPixelQualityESProducer'
p1688
sg26
S'SiPixelQualityESProducer'
p1689
sbsI139901208804048
g0
(g7
g2
Ntp1690
Rp1691
(dp1692
g11
(lp1693
S'PreFilter'
p1694
ag266
aS'NSigmaInside'
p1695
asg14
I00
sg15
I00
sg17
g18
sg266
g0
(g62
g2
Ntp1696
Rp1697
(dp1698
g14
I00
sg24
I01
sg25
S'StandardMatcher'
p1699
sg15
I00
sbsg1694
g0
(g20
g2
Ntp1700
Rp1701
(dp1702
g14
I00
sg24
I01
sg25
I00
sg15
I00
sbsg16
I52
sg1695
g0
(g125
g2
Ntp1703
Rp1704
(dp1705
g14
I00
sg24
I01
sg25
F3.0
sg15
I00
sbsg19
S'SiStripRecHitMatcherESProducer'
p1706
sg26
g1706
sbsI139901209067216
g9
sI139901208932112
g0
(g7
g2
Ntp1707
Rp1708
(dp1709
g11
(lp1710
g1396
aS'compatibiltyWith11'
p1711
asg14
I00
sg15
I00
sg16
I52
sg17
g18
sg1396
g0
(g20
g2
Ntp1712
Rp1713
(dp1714
g14
I00
sg24
I00
sg25
I00
sg15
I00
sbsg1711
g0
(g20
g2
Ntp1715
Rp1716
(dp1717
g14
I00
sg24
I00
sg25
I01
sg15
I00
sbsg19
S'RPCGeometryESModule'
p1718
sg26
g1718
sbsI139901208633168
g0
(g7
g2
Ntp1719
Rp1720
(dp1721
g11
(lp1722
sg14
I00
sg15
I00
sg16
I52
sg17
g18
sg19
S'EcalLaserCorrectionService'
p1723
sg26
g1723
sbsI139901209066640
g1367
sI139901208572048
g1516
sI139901208629456
g0
(g7
g2
Ntp1724
Rp1725
(dp1726
g11
(lp1727
g116
asg14
I00
sg116
g0
(g62
g2
Ntp1728
Rp1729
(dp1730
g14
I00
sg24
I01
sg25
g1498
sg15
I01
sbsg15
I01
sg16
I5
sg17
S'/cvmfs/cms.cern.ch/slc6_amd64_gcc530/cms/cmssw/CMSSW_9_2_10/python/Alignment/CommonAlignmentProducer/fakeForIdealAlignmentProducer_cfi.py'
p1731
sg19
S'fakeForIdealAlignment'
p1732
sg26
S'FakeAlignmentProducer'
p1733
sbsI139901208765904
g0
(cFWCore.ParameterSet.Modules
ESPrefer
p1734
g2
Ntp1735
Rp1736
(dp1737
g11
(lp1738
sg14
I00
sg15
I00
sS'_targetLabel'
p1739
g672
sg16
I88
sg17
g18
sg19
S'es_prefer_hcalHardcode'
p1740
sg26
g882
sbsI139901209063888
g224
sI139901208572560
g0
(g7
g2
Ntp1741
Rp1742
(dp1743
g11
(lp1744
sg14
I00
sg15
I00
sg16
I52
sg17
g18
sg19
S'CaloTowerTopologyEP'
p1745
sg26
g1745
sbssg1745
g1742
sg1617
g1567
sg1706
g1691
sg1718
g1708
sg1545
g1535
sg1630
g1624
sS'_Process__esprefers'
p1746
(dp1747
g1740
g1736
ssg1530
g1527
sS'_Process__schedule'
p1748
Nsg1636
g1633
sS'_Process__outputmodules'
p1749
(dp1750
sS'_Process__analyzers'
p1751
(dp1752
g656
g600
ssS'_Process__InExtendCall'
p1753
I00
sg1723
g1720
sg1740
g1736
sg1651
g1641
sS'_Process__modifiers'
p1754
(tsS'_Process__producers'
p1755
(dp1756
g437
g440
ssg1688
g1659
sg1286
g1288
sS'_Process__filters'
p1757
(dp1758
sg259
g244
sS'_Process__looper'
p1759
NsS'_Process__endpaths'
p1760
g0
(cFWCore.ParameterSet.DictTypes
SortedKeysDict
p1761
c__builtin__
dict
p1762
(dp1763
tp1764
Rp1765
(dp1766
S'list'
p1767
(lp1768
sbsS'_Process__esproducers'
p1769
(dp1770
g27
g29
sg1723
g1720
sg1556
g1553
sg260
g262
sg358
g360
sg366
g368
sg371
g373
sg402
g404
sg504
g506
sg543
g545
sg1360
g1362
sg1365
g1367
sg1373
g1375
sg1381
g1383
sg1391
g1393
sg1434
g1436
sg1467
g1469
sg1444
g1446
sg1457
g1459
sg1479
g1481
sg1514
g1516
sg49
g51
sg571
g573
sg1617
g1567
sg1706
g1691
sg1718
g1708
sg1545
g1535
sg1530
g1527
sg222
g224
sg111
g113
sg1451
g1453
sg1651
g1641
sg1745
g1742
sg1688
g1659
sg420
g422
sg1630
g1624
sg1429
g1431
sg1564
g1558
sg1636
g1633
sg1732
g1725
sg6
g9
ssS'_Process__tasks'
p1771
(dp1772
sg99
g102
sS'_Process__paths'
p1773
g0
(g1761
g1762
(dp1774
g586
g589
stp1775
Rp1776
(dp1777
g1767
(lp1778
g586
asbsg1564
g1558
sg1556
g1553
sS'_Process__partialschedules'
p1779
(dp1780
sg1732
g1725
sS'_Process__isStrict'
p1781
I00
sb.